

Microchip MPLAB XC8 Assembler V2.10 build 88905656 
                                                                                               Tue Sep 03 04:15:55 2019

Microchip MPLAB XC8 C Compiler v2.10 (Free license) build 20190730164152 Og1 
     1                           	processor	16LF877A
     2                           	opt	pw 120
     3                           	opt	flic
     4                           	psect	strings,global,class=STRING,delta=2
     5                           	psect	cinit,global,class=CODE,merge=1,delta=2
     6                           	psect	bssBANK0,global,class=BANK0,space=1,delta=1
     7                           	psect	cstackCOMMON,global,class=COMMON,space=1,delta=1
     8                           	psect	cstackBANK0,global,class=BANK0,space=1,delta=1
     9                           	psect	maintext,global,class=CODE,split=1,delta=2
    10                           	psect	text1,local,class=CODE,merge=1,delta=2,group=1
    11                           	psect	text2,local,class=CODE,merge=1,delta=2,group=1
    12                           	psect	text3,local,class=CODE,merge=1,delta=2,group=1
    13                           	psect	text4,local,class=CODE,merge=1,delta=2,group=1
    14                           	psect	text5,local,class=CODE,merge=1,delta=2,group=1
    15                           	psect	text6,local,class=CODE,merge=1,delta=2,group=1
    16                           	psect	text7,local,class=CODE,merge=1,delta=2,group=1
    17                           	psect	text8,local,class=CODE,merge=1,delta=2
    18                           	psect	text9,local,class=CODE,merge=1,delta=2
    19                           	psect	text10,local,class=CODE,merge=1,delta=2
    20                           	psect	text11,local,class=CODE,merge=1,delta=2
    21                           	psect	text12,local,class=CODE,merge=1,delta=2
    22                           	psect	text13,local,class=CODE,merge=1,delta=2
    23                           	psect	text14,local,class=CODE,merge=1,delta=2
    24                           	dabs	1,0x7E,2
    25  0000                     
    26                           ; Version 2.10
    27                           ; Generated 31/07/2019 GMT
    28                           ; 
    29                           ; Copyright © 2019, Microchip Technology Inc. and its subsidiaries ("Microchip")
    30                           ; All rights reserved.
    31                           ; 
    32                           ; This software is developed by Microchip Technology Inc. and its subsidiaries ("Microch
      +                          ip").
    33                           ; 
    34                           ; Redistribution and use in source and binary forms, with or without modification, are
    35                           ; permitted provided that the following conditions are met:
    36                           ; 
    37                           ;     1. Redistributions of source code must retain the above copyright notice, this lis
      +                          t of
    38                           ;        conditions and the following disclaimer.
    39                           ; 
    40                           ;     2. Redistributions in binary form must reproduce the above copyright notice, this 
      +                          list
    41                           ;        of conditions and the following disclaimer in the documentation and/or other
    42                           ;        materials provided with the distribution.
    43                           ; 
    44                           ;     3. Microchip's name may not be used to endorse or promote products derived from th
      +                          is
    45                           ;        software without specific prior written permission.
    46                           ; 
    47                           ; THIS SOFTWARE IS PROVIDED BY MICROCHIP "AS IS" AND ANY EXPRESS OR IMPLIED WARRANTIES,
    48                           ; INCLUDING, BUT NOT LIMITED TO, THE IMPLIED WARRANTIES OF MERCHANTABILITY AND FITNESS F
      +                          OR
    49                           ; PURPOSE ARE DISCLAIMED.  IN NO EVENT SHALL MICROCHIP BE LIABLE FOR ANY DIRECT, INDIREC
      +                          T,
    50                           ; INCIDENTAL, SPECIAL, EXEMPLARY, OR CONSEQUENTIAL DAMAGES (INCLUDING BUT NOT LIMITED TO
    51                           ; PROCUREMENT OF SUBSTITUTE GOODS OR SERVICES; LOSS OF USE, DATA OR PROFITS; OR BUSINESS
    52                           ; INTERRUPTION) HOWSOEVER CAUSED AND ON ANY THEORY OF LIABILITY, WHETHER IN CONTRACT, ST
      +                          RICT
    53                           ; LIABILITY, OR TORT (INCLUDING NEGLIGENCE OR OTHERWISE) ARISING IN ANY WAY OUT OF THE U
      +                          SE OF
    54                           ; THIS SOFTWARE, EVEN IF ADVISED OF THE POSSIBILITY OF SUCH DAMAGE.
    55                           ; 
    56                           ; 
    57                           ; Code-generator required, PIC16LF877A Definitions
    58                           ; 
    59                           ; SFR Addresses
    60  0000                     	;# 
    61  0001                     	;# 
    62  0002                     	;# 
    63  0003                     	;# 
    64  0004                     	;# 
    65  0005                     	;# 
    66  0006                     	;# 
    67  0007                     	;# 
    68  0008                     	;# 
    69  0009                     	;# 
    70  000A                     	;# 
    71  000B                     	;# 
    72  000C                     	;# 
    73  000D                     	;# 
    74  000E                     	;# 
    75  000E                     	;# 
    76  000F                     	;# 
    77  0010                     	;# 
    78  0011                     	;# 
    79  0012                     	;# 
    80  0013                     	;# 
    81  0014                     	;# 
    82  0015                     	;# 
    83  0015                     	;# 
    84  0016                     	;# 
    85  0017                     	;# 
    86  0018                     	;# 
    87  0019                     	;# 
    88  001A                     	;# 
    89  001B                     	;# 
    90  001B                     	;# 
    91  001C                     	;# 
    92  001D                     	;# 
    93  001E                     	;# 
    94  001F                     	;# 
    95  0081                     	;# 
    96  0085                     	;# 
    97  0086                     	;# 
    98  0087                     	;# 
    99  0088                     	;# 
   100  0089                     	;# 
   101  008C                     	;# 
   102  008D                     	;# 
   103  008E                     	;# 
   104  0091                     	;# 
   105  0092                     	;# 
   106  0093                     	;# 
   107  0094                     	;# 
   108  0098                     	;# 
   109  0099                     	;# 
   110  009C                     	;# 
   111  009D                     	;# 
   112  009E                     	;# 
   113  009F                     	;# 
   114  010C                     	;# 
   115  010D                     	;# 
   116  010E                     	;# 
   117  010F                     	;# 
   118  018C                     	;# 
   119  018D                     	;# 
   120  0000                     	;# 
   121  0001                     	;# 
   122  0002                     	;# 
   123  0003                     	;# 
   124  0004                     	;# 
   125  0005                     	;# 
   126  0006                     	;# 
   127  0007                     	;# 
   128  0008                     	;# 
   129  0009                     	;# 
   130  000A                     	;# 
   131  000B                     	;# 
   132  000C                     	;# 
   133  000D                     	;# 
   134  000E                     	;# 
   135  000E                     	;# 
   136  000F                     	;# 
   137  0010                     	;# 
   138  0011                     	;# 
   139  0012                     	;# 
   140  0013                     	;# 
   141  0014                     	;# 
   142  0015                     	;# 
   143  0015                     	;# 
   144  0016                     	;# 
   145  0017                     	;# 
   146  0018                     	;# 
   147  0019                     	;# 
   148  001A                     	;# 
   149  001B                     	;# 
   150  001B                     	;# 
   151  001C                     	;# 
   152  001D                     	;# 
   153  001E                     	;# 
   154  001F                     	;# 
   155  0081                     	;# 
   156  0085                     	;# 
   157  0086                     	;# 
   158  0087                     	;# 
   159  0088                     	;# 
   160  0089                     	;# 
   161  008C                     	;# 
   162  008D                     	;# 
   163  008E                     	;# 
   164  0091                     	;# 
   165  0092                     	;# 
   166  0093                     	;# 
   167  0094                     	;# 
   168  0098                     	;# 
   169  0099                     	;# 
   170  009C                     	;# 
   171  009D                     	;# 
   172  009E                     	;# 
   173  009F                     	;# 
   174  010C                     	;# 
   175  010D                     	;# 
   176  010E                     	;# 
   177  010F                     	;# 
   178  018C                     	;# 
   179  018D                     	;# 
   180  000E                     _TMR1L	set	14
   181  000F                     _TMR1H	set	15
   182  0080                     _TMR1ON	set	128
   183  0032                     _RB2	set	50
   184  0031                     _RB1	set	49
   185  0048                     _RE0	set	72
   186  0028                     _RA0	set	40
   187  0043                     _RD3	set	67
   188  0042                     _RD2	set	66
   189  0047                     _RD7	set	71
   190  0046                     _RD6	set	70
   191  0045                     _RD5	set	69
   192  0044                     _RD4	set	68
   193  0088                     _TRISD	set	136
   194  0448                     _TRISE0	set	1096
   195  0428                     _TRISA0	set	1064
   196  0432                     _TRISB2	set	1074
   197  0431                     _TRISB1	set	1073
   198                           
   199                           	psect	strings
   200  0800                     __pstrings:	
   201  0800                     stringtab:	
   202  0800                     __stringtab:	
   203  0800                     stringcode:	
   204                           ;	String table - string pointers are 1 byte each
   205                           
   206  0800                     stringdir:	
   207  0800  3008               	movlw	high stringdir
   208  0801  008A               	movwf	10
   209  0802  0804               	movf	4,w
   210  0803  0A84               	incf	4,f
   211  0804  0782               	addwf	2,f
   212  0805                     __stringbase:	
   213  0805  3400               	retlw	0
   214  0806                     __end_of__stringtab:	
   215  0806                     STR_3:	
   216  0806  3444               	retlw	68	;'D'
   217  0807  3465               	retlw	101	;'e'
   218  0808  3474               	retlw	116	;'t'
   219  0809  3465               	retlw	101	;'e'
   220  080A  3463               	retlw	99	;'c'
   221  080B  3474               	retlw	116	;'t'
   222  080C  3469               	retlw	105	;'i'
   223  080D  346E               	retlw	110	;'n'
   224  080E  3467               	retlw	103	;'g'
   225  080F  342E               	retlw	46	;'.'
   226  0810  342E               	retlw	46	;'.'
   227  0811  342E               	retlw	46	;'.'
   228  0812  342E               	retlw	46	;'.'
   229  0813  3400               	retlw	0
   230  0814                     STR_1:	
   231  0814  3457               	retlw	87	;'W'
   232  0815  3461               	retlw	97	;'a'
   233  0816  3474               	retlw	116	;'t'
   234  0817  3465               	retlw	101	;'e'
   235  0818  3472               	retlw	114	;'r'
   236  0819  3420               	retlw	32	;' '
   237  081A  344C               	retlw	76	;'L'
   238  081B  3465               	retlw	101	;'e'
   239  081C  3476               	retlw	118	;'v'
   240  081D  3465               	retlw	101	;'e'
   241  081E  346C               	retlw	108	;'l'
   242  081F  3400               	retlw	0
   243  0820                     STR_4:	
   244  0820  3464               	retlw	100	;'d'
   245  0821  3469               	retlw	105	;'i'
   246  0822  3473               	retlw	115	;'s'
   247  0823  3474               	retlw	116	;'t'
   248  0824  3461               	retlw	97	;'a'
   249  0825  346E               	retlw	110	;'n'
   250  0826  3463               	retlw	99	;'c'
   251  0827  3465               	retlw	101	;'e'
   252  0828  343A               	retlw	58	;':'
   253  0829  3400               	retlw	0
   254  082A                     STR_2:	
   255  082A  3449               	retlw	73	;'I'
   256  082B  346E               	retlw	110	;'n'
   257  082C  3464               	retlw	100	;'d'
   258  082D  3469               	retlw	105	;'i'
   259  082E  3463               	retlw	99	;'c'
   260  082F  3461               	retlw	97	;'a'
   261  0830  3474               	retlw	116	;'t'
   262  0831  346F               	retlw	111	;'o'
   263  0832  3472               	retlw	114	;'r'
   264  0833  3400               	retlw	0
   265                           
   266                           ; #config settings
   267  0000                     
   268                           	psect	cinit
   269  07F3                     start_initialization:	
   270  07F3                     __initialization:	
   271                           
   272                           ; Clear objects allocated to BANK0
   273  07F3  1283               	bcf	3,5	;RP0=0, select bank0
   274  07F4  1303               	bcf	3,6	;RP1=0, select bank0
   275  07F5  01E2               	clrf	__pbssBANK0& (0+127)
   276  07F6  01E3               	clrf	(__pbssBANK0+1)& (0+127)
   277  07F7  01E4               	clrf	(__pbssBANK0+2)& (0+127)
   278  07F8  01E5               	clrf	(__pbssBANK0+3)& (0+127)
   279  07F9  01E6               	clrf	(__pbssBANK0+4)& (0+127)
   280  07FA  01E7               	clrf	(__pbssBANK0+5)& (0+127)
   281  07FB  01E8               	clrf	(__pbssBANK0+6)& (0+127)
   282  07FC                     end_of_initialization:	
   283                           ;End of C runtime variable initialization code
   284                           
   285  07FC                     __end_of__initialization:	
   286  07FC  0183               	clrf	3
   287  07FD  120A  118A  2962   	ljmp	_main	;jump to C main() function
   288                           
   289                           	psect	bssBANK0
   290  0062                     __pbssBANK0:	
   291  0062                     _distance:	
   292  0062                     	ds	2
   293  0064                     _d3:	
   294  0064                     	ds	1
   295  0065                     _d2:	
   296  0065                     	ds	1
   297  0066                     _d1:	
   298  0066                     	ds	1
   299  0067                     _time_taken:	
   300  0067                     	ds	2
   301                           
   302                           	psect	cstackCOMMON
   303  0070                     __pcstackCOMMON:	
   304  0070                     ?_Lcd_Port:	
   305  0070                     ??_Lcd_Port:	
   306                           ; 1 bytes @ 0x0
   307                           
   308  0070                     ?_Lcd_Cmd:	
   309                           ; 1 bytes @ 0x0
   310                           
   311  0070                     ?_Lcd_Init:	
   312                           ; 1 bytes @ 0x0
   313                           
   314  0070                     ?_Lcd_Write_Char:	
   315                           ; 1 bytes @ 0x0
   316                           
   317  0070                     ?_Lcd_Write_String:	
   318                           ; 1 bytes @ 0x0
   319                           
   320  0070                     ?_main:	
   321                           ; 1 bytes @ 0x0
   322                           
   323  0070                     ?__Umul8_16:	
   324                           ; 1 bytes @ 0x0
   325                           
   326  0070                     ?_Lcd_Clear:	
   327                           ; 2 bytes @ 0x0
   328                           
   329  0070                     ?___awdiv:	
   330                           ; 2 bytes @ 0x0
   331                           
   332  0070                     ?___xxtofl:	
   333                           ; 2 bytes @ 0x0
   334                           
   335  0070                     Lcd_Port@a:	
   336                           ; 4 bytes @ 0x0
   337                           
   338  0070                     __Umul8_16@multiplicand:	
   339                           ; 1 bytes @ 0x0
   340                           
   341  0070                     ___awdiv@divisor:	
   342                           ; 1 bytes @ 0x0
   343                           
   344  0070                     ___xxtofl@val:	
   345                           ; 2 bytes @ 0x0
   346                           
   347                           
   348                           ; 4 bytes @ 0x0
   349  0070                     	ds	1
   350  0071                     ??_Lcd_Cmd:	
   351  0071                     ??_Lcd_Write_Char:	
   352                           ; 1 bytes @ 0x1
   353                           
   354                           
   355                           ; 1 bytes @ 0x1
   356  0071                     	ds	1
   357  0072                     ??__Umul8_16:	
   358  0072                     Lcd_Write_Char@Lower_Nibble:	
   359                           ; 1 bytes @ 0x2
   360                           
   361  0072                     ___awdiv@dividend:	
   362                           ; 1 bytes @ 0x2
   363                           
   364                           
   365                           ; 2 bytes @ 0x2
   366  0072                     	ds	1
   367  0073                     Lcd_Cmd@a:	
   368  0073                     Lcd_Write_Char@Upper_Nibble:	
   369                           ; 1 bytes @ 0x3
   370                           
   371                           
   372                           ; 1 bytes @ 0x3
   373  0073                     	ds	1
   374  0074                     ??_Lcd_Clear:	
   375  0074                     ?_Lcd_Set_Cursor:	
   376                           ; 1 bytes @ 0x4
   377                           
   378  0074                     ??_Lcd_Init:	
   379                           ; 1 bytes @ 0x4
   380                           
   381  0074                     ??___awdiv:	
   382                           ; 1 bytes @ 0x4
   383                           
   384  0074                     ??___xxtofl:	
   385                           ; 1 bytes @ 0x4
   386                           
   387  0074                     Lcd_Set_Cursor@b:	
   388                           ; 1 bytes @ 0x4
   389                           
   390  0074                     Lcd_Write_Char@data:	
   391                           ; 1 bytes @ 0x4
   392                           
   393  0074                     __Umul8_16@product:	
   394                           ; 1 bytes @ 0x4
   395                           
   396                           
   397                           ; 2 bytes @ 0x4
   398  0074                     	ds	1
   399  0075                     ??_Lcd_Set_Cursor:	
   400  0075                     ___awdiv@counter:	
   401                           ; 1 bytes @ 0x5
   402                           
   403  0075                     Lcd_Write_Char@i:	
   404                           ; 1 bytes @ 0x5
   405                           
   406                           
   407                           ; 2 bytes @ 0x5
   408  0075                     	ds	1
   409  0076                     ___awdiv@sign:	
   410  0076                     __Umul8_16@word_mpld:	
   411                           ; 1 bytes @ 0x6
   412                           
   413                           
   414                           ; 2 bytes @ 0x6
   415  0076                     	ds	1
   416  0077                     Lcd_Set_Cursor@a:	
   417  0077                     Lcd_Write_Char@i_69:	
   418                           ; 1 bytes @ 0x7
   419                           
   420  0077                     ___awdiv@quotient:	
   421                           ; 2 bytes @ 0x7
   422                           
   423                           
   424                           ; 2 bytes @ 0x7
   425  0077                     	ds	1
   426  0078                     Lcd_Set_Cursor@z:	
   427  0078                     ___xxtofl@sign:	
   428                           ; 1 bytes @ 0x8
   429                           
   430  0078                     __Umul8_16@multiplier:	
   431                           ; 1 bytes @ 0x8
   432                           
   433                           
   434                           ; 1 bytes @ 0x8
   435  0078                     	ds	1
   436  0079                     ??_Lcd_Write_String:	
   437  0079                     ?___awmod:	
   438                           ; 1 bytes @ 0x9
   439                           
   440  0079                     Lcd_Set_Cursor@y:	
   441                           ; 2 bytes @ 0x9
   442                           
   443  0079                     ___xxtofl@exp:	
   444                           ; 1 bytes @ 0x9
   445                           
   446  0079                     Lcd_Write_String@i:	
   447                           ; 1 bytes @ 0x9
   448                           
   449  0079                     ___awmod@divisor:	
   450                           ; 2 bytes @ 0x9
   451                           
   452                           
   453                           ; 2 bytes @ 0x9
   454  0079                     	ds	1
   455  007A                     Lcd_Set_Cursor@temp:	
   456  007A                     ___xxtofl@arg:	
   457                           ; 1 bytes @ 0xA
   458                           
   459                           
   460                           ; 4 bytes @ 0xA
   461  007A                     	ds	1
   462  007B                     Lcd_Write_String@a:	
   463  007B                     ___awmod@dividend:	
   464                           ; 1 bytes @ 0xB
   465                           
   466                           
   467                           ; 2 bytes @ 0xB
   468  007B                     	ds	2
   469  007D                     ??___awmod:	
   470                           
   471                           ; 1 bytes @ 0xD
   472  007D                     	ds	1
   473                           
   474                           	psect	cstackBANK0
   475  0020                     __pcstackBANK0:	
   476  0020                     ?___flmul:	
   477  0020                     ___awmod@counter:	
   478                           ; 4 bytes @ 0x0
   479                           
   480  0020                     ___flmul@b:	
   481                           ; 1 bytes @ 0x0
   482                           
   483                           
   484                           ; 4 bytes @ 0x0
   485  0020                     	ds	1
   486  0021                     ___awmod@sign:	
   487                           
   488                           ; 1 bytes @ 0x1
   489  0021                     	ds	3
   490  0024                     ___flmul@a:	
   491                           
   492                           ; 4 bytes @ 0x4
   493  0024                     	ds	4
   494  0028                     ??___flmul:	
   495                           
   496                           ; 1 bytes @ 0x8
   497  0028                     	ds	5
   498  002D                     ___flmul@sign:	
   499                           
   500                           ; 1 bytes @ 0xD
   501  002D                     	ds	1
   502  002E                     ___flmul@grs:	
   503                           
   504                           ; 4 bytes @ 0xE
   505  002E                     	ds	4
   506  0032                     ___flmul@aexp:	
   507                           
   508                           ; 1 bytes @ 0x12
   509  0032                     	ds	1
   510  0033                     ___flmul@bexp:	
   511                           
   512                           ; 1 bytes @ 0x13
   513  0033                     	ds	1
   514  0034                     ___flmul@prod:	
   515                           
   516                           ; 4 bytes @ 0x14
   517  0034                     	ds	4
   518  0038                     ___flmul@temp:	
   519                           
   520                           ; 2 bytes @ 0x18
   521  0038                     	ds	2
   522  003A                     ?___fldiv:	
   523  003A                     ___fldiv@a:	
   524                           ; 4 bytes @ 0x1A
   525                           
   526                           
   527                           ; 4 bytes @ 0x1A
   528  003A                     	ds	4
   529  003E                     ___fldiv@b:	
   530                           
   531                           ; 4 bytes @ 0x1E
   532  003E                     	ds	4
   533  0042                     ??___fldiv:	
   534                           
   535                           ; 1 bytes @ 0x22
   536  0042                     	ds	5
   537  0047                     ___fldiv@rem:	
   538                           
   539                           ; 4 bytes @ 0x27
   540  0047                     	ds	4
   541  004B                     ___fldiv@sign:	
   542                           
   543                           ; 1 bytes @ 0x2B
   544  004B                     	ds	1
   545  004C                     ___fldiv@new_exp:	
   546                           
   547                           ; 2 bytes @ 0x2C
   548  004C                     	ds	2
   549  004E                     ___fldiv@grs:	
   550                           
   551                           ; 4 bytes @ 0x2E
   552  004E                     	ds	4
   553  0052                     ___fldiv@bexp:	
   554                           
   555                           ; 1 bytes @ 0x32
   556  0052                     	ds	1
   557  0053                     ___fldiv@aexp:	
   558                           
   559                           ; 1 bytes @ 0x33
   560  0053                     	ds	1
   561  0054                     ?___fltol:	
   562  0054                     ___fltol@f1:	
   563                           ; 4 bytes @ 0x34
   564                           
   565                           
   566                           ; 4 bytes @ 0x34
   567  0054                     	ds	4
   568  0058                     ??___fltol:	
   569                           
   570                           ; 1 bytes @ 0x38
   571  0058                     	ds	5
   572  005D                     ___fltol@sign1:	
   573                           
   574                           ; 1 bytes @ 0x3D
   575  005D                     	ds	1
   576  005E                     ___fltol@exp1:	
   577                           
   578                           ; 1 bytes @ 0x3E
   579  005E                     	ds	1
   580  005F                     ??_main:	
   581                           
   582                           ; 1 bytes @ 0x3F
   583  005F                     	ds	3
   584                           
   585                           	psect	maintext
   586  0162                     __pmaintext:	
   587 ;;
   588 ;;Main: autosize = 0, tempsize = 3, incstack = 0, save=0
   589 ;;
   590 ;; *************** function _main *****************
   591 ;; Defined at:
   592 ;;		line 39 in file "main.c"
   593 ;; Parameters:    Size  Location     Type
   594 ;;		None
   595 ;; Auto vars:     Size  Location     Type
   596 ;;		None
   597 ;; Return value:  Size  Location     Type
   598 ;;                  1    wreg      void 
   599 ;; Registers used:
   600 ;;		wreg, fsr0l, fsr0h, status,2, status,0, btemp+1, pclath, cstack
   601 ;; Tracked objects:
   602 ;;		On entry : B00/0
   603 ;;		On exit  : 0/0
   604 ;;		Unchanged: 0/0
   605 ;; Data sizes:     COMMON   BANK0   BANK1   BANK3   BANK2
   606 ;;      Params:         0       0       0       0       0
   607 ;;      Locals:         0       0       0       0       0
   608 ;;      Temps:          0       3       0       0       0
   609 ;;      Totals:         0       3       0       0       0
   610 ;;Total ram usage:        3 bytes
   611 ;; Hardware stack levels required when called:    3
   612 ;; This function calls:
   613 ;;		_Lcd_Clear
   614 ;;		_Lcd_Init
   615 ;;		_Lcd_Set_Cursor
   616 ;;		_Lcd_Write_Char
   617 ;;		_Lcd_Write_String
   618 ;;		___awdiv
   619 ;;		___awmod
   620 ;;		___fldiv
   621 ;;		___flmul
   622 ;;		___fltol
   623 ;;		___xxtofl
   624 ;; This function is called by:
   625 ;;		Startup code after reset
   626 ;; This function uses a non-reentrant model
   627 ;;
   628                           
   629                           
   630                           ;psect for function _main
   631  0162                     _main:	
   632  0162                     l1855:	
   633                           ;incstack = 0
   634                           ; Regs used in _main: [wreg-fsr0h+status,2+status,0+btemp+1+pclath+cstack]
   635                           
   636                           
   637                           ;main.c: 41: 
   638  0162  1683               	bsf	3,5	;RP0=1, select bank1
   639  0163  1303               	bcf	3,6	;RP1=0, select bank1
   640  0164  0188               	clrf	8	;volatile
   641                           
   642                           ;main.c: 42:         if(distance<10)
   643  0165  0188               	clrf	8	;volatile
   644  0166                     l1857:	
   645                           
   646                           ;main.c: 43:         {
   647  0166  1086               	bcf	6,1	;volatile
   648  0167                     l1859:	
   649                           
   650                           ;main.c: 44:             RA0=1;
   651  0167  1506               	bsf	6,2	;volatile
   652  0168                     l1861:	
   653                           
   654                           ;main.c: 45:             RE0=1;
   655  0168  1005               	bcf	5,0	;volatile
   656  0169                     l1863:	
   657                           
   658                           ;main.c: 46:         }
   659  0169  1009               	bcf	9,0	;volatile
   660  016A                     l1865:	
   661                           
   662                           ;main.c: 48:         {
   663  016A  120A  158A  26DD  120A  118A  	fcall	_Lcd_Init
   664  016F                     l1867:	
   665                           
   666                           ;main.c: 49:             RA0=0;
   667  016F  1283               	bcf	3,5	;RP0=0, select bank0
   668  0170  1303               	bcf	3,6	;RP1=0, select bank0
   669  0171  1405               	bsf	5,0	;volatile
   670  0172                     l1869:	
   671                           
   672                           ;main.c: 50:             RE0=0;
   673  0172  1409               	bsf	9,0	;volatile
   674  0173                     l1871:	
   675                           
   676                           ;main.c: 51:         }
   677  0173  01F4               	clrf	Lcd_Set_Cursor@b
   678  0174  0AF4               	incf	Lcd_Set_Cursor@b,f
   679  0175  3001               	movlw	1
   680  0176  120A  158A  2630  120A  118A  	fcall	_Lcd_Set_Cursor
   681  017B                     l1873:	
   682                           
   683                           ;main.c: 52: 
   684  017B  300F               	movlw	(low ((STR_1-__stringbase)| (0+32768)))& (0+255)
   685  017C  120A  158A  260B  120A  118A  	fcall	_Lcd_Write_String
   686  0181                     l1875:	
   687                           
   688                           ;main.c: 53: 
   689  0181  01F4               	clrf	Lcd_Set_Cursor@b
   690  0182  0AF4               	incf	Lcd_Set_Cursor@b,f
   691  0183  3002               	movlw	2
   692  0184  120A  158A  2630  120A  118A  	fcall	_Lcd_Set_Cursor
   693  0189                     l1877:	
   694                           
   695                           ;main.c: 54:         d1 = (distance/100)%10;
   696  0189  3025               	movlw	(low ((STR_2-__stringbase)| (0+32768)))& (0+255)
   697  018A  120A  158A  260B  120A  118A  	fcall	_Lcd_Write_String
   698  018F                     l1879:	
   699                           
   700                           ;main.c: 55:         d2 = (distance/10)%10;
   701  018F  3006               	movlw	6
   702  0190  1283               	bcf	3,5	;RP0=0, select bank0
   703  0191  1303               	bcf	3,6	;RP1=0, select bank0
   704  0192  00E1               	movwf	??_main+2
   705  0193  3013               	movlw	19
   706  0194  00E0               	movwf	??_main+1
   707  0195  30AD               	movlw	173
   708  0196  00DF               	movwf	??_main
   709  0197                     u2557:	
   710  0197  0BDF               	decfsz	??_main,f
   711  0198  2997               	goto	u2557
   712  0199  0BE0               	decfsz	??_main+1,f
   713  019A  2997               	goto	u2557
   714  019B  0BE1               	decfsz	??_main+2,f
   715  019C  2997               	goto	u2557
   716  019D                     l1881:	
   717                           
   718                           ;main.c: 56:         d3 = (distance/1)%10;
   719  019D  120A  158A  25C2  120A  118A  	fcall	_Lcd_Clear
   720  01A2                     l1883:	
   721                           
   722                           ;main.c: 59:         Lcd_Write_String("Detecting....");;main.c: 60: 
   723  01A2  1283               	bcf	3,5	;RP0=0, select bank0
   724  01A3  1303               	bcf	3,6	;RP1=0, select bank0
   725  01A4  018F               	clrf	15	;volatile
   726  01A5                     l1885:	
   727  01A5  018E               	clrf	14	;volatile
   728  01A6                     l1887:	
   729                           
   730                           ;main.c: 62:         Lcd_Write_String("distance:");
   731  01A6  1486               	bsf	6,1	;volatile
   732  01A7                     l1889:	
   733                           
   734                           ;main.c: 63:         Lcd_Write_Char(d1+'0');
   735  01A7  3002               	movlw	2
   736  01A8  1283               	bcf	3,5	;RP0=0, select bank0
   737  01A9  1303               	bcf	3,6	;RP1=0, select bank0
   738  01AA  00DF               	movwf	??_main
   739  01AB                     u2567:	
   740  01AB  0BDF               	decfsz	??_main,f
   741  01AC  29AB               	goto	u2567
   742  01AD  0000               	nop
   743  01AE                     l1891:	
   744                           
   745                           ;main.c: 64:         Lcd_Write_Char(d2+'0');
   746  01AE  1283               	bcf	3,5	;RP0=0, select bank0
   747  01AF  1303               	bcf	3,6	;RP1=0, select bank0
   748  01B0  1086               	bcf	6,1	;volatile
   749  01B1                     l95:	
   750                           ;main.c: 66: 
   751                           
   752  01B1  1D06               	btfss	6,2	;volatile
   753  01B2  29B4               	goto	u2521
   754  01B3  29B5               	goto	u2520
   755  01B4                     u2521:	
   756  01B4  29B1               	goto	l95
   757  01B5                     u2520:	
   758  01B5                     l97:	
   759                           
   760                           ;main.c: 67:     }
   761  01B5  1410               	bsf	16,0	;volatile
   762  01B6                     l98:	
   763                           ;main.c: 68: }
   764                           
   765  01B6  1906               	btfsc	6,2	;volatile
   766  01B7  29B9               	goto	u2531
   767  01B8  29BA               	goto	u2530
   768  01B9                     u2531:	
   769  01B9  29B6               	goto	l98
   770  01BA                     u2530:	
   771  01BA                     l100:	
   772  01BA  1010               	bcf	16,0	;volatile
   773  01BB                     l1893:	
   774  01BB  080F               	movf	15,w	;volatile
   775  01BC  00E8               	movwf	_time_taken+1
   776  01BD  080E               	movf	14,w	;volatile
   777  01BE  00E7               	movwf	_time_taken
   778  01BF                     l1895:	
   779  01BF  0867               	movf	_time_taken,w
   780  01C0  00F0               	movwf	___xxtofl@val
   781  01C1  0868               	movf	_time_taken+1,w
   782  01C2  00F1               	movwf	___xxtofl@val+1
   783  01C3  3000               	movlw	0
   784  01C4  1BF1               	btfsc	___xxtofl@val+1,7
   785  01C5  30FF               	movlw	255
   786  01C6  00F2               	movwf	___xxtofl@val+2
   787  01C7  00F3               	movwf	___xxtofl@val+3
   788  01C8  3001               	movlw	1
   789  01C9  120A  118A  20A8  120A  118A  	fcall	___xxtofl
   790  01CE  0873               	movf	?___xxtofl+3,w
   791  01CF  1283               	bcf	3,5	;RP0=0, select bank0
   792  01D0  1303               	bcf	3,6	;RP1=0, select bank0
   793  01D1  00A7               	movwf	___flmul@a+3
   794  01D2  0872               	movf	?___xxtofl+2,w
   795  01D3  00A6               	movwf	___flmul@a+2
   796  01D4  0871               	movf	?___xxtofl+1,w
   797  01D5  00A5               	movwf	___flmul@a+1
   798  01D6  0870               	movf	?___xxtofl,w
   799  01D7  00A4               	movwf	___flmul@a
   800  01D8  303C               	movlw	60
   801  01D9  00A3               	movwf	___flmul@b+3
   802  01DA  30DE               	movlw	222
   803  01DB  00A2               	movwf	___flmul@b+2
   804  01DC  30D2               	movlw	210
   805  01DD  00A1               	movwf	___flmul@b+1
   806  01DE  3089               	movlw	137
   807  01DF  00A0               	movwf	___flmul@b
   808  01E0  120A  118A  2492  120A  118A  	fcall	___flmul
   809  01E5  1283               	bcf	3,5	;RP0=0, select bank0
   810  01E6  1303               	bcf	3,6	;RP1=0, select bank0
   811  01E7  0823               	movf	?___flmul+3,w
   812  01E8  00C1               	movwf	___fldiv@b+3
   813  01E9  0822               	movf	?___flmul+2,w
   814  01EA  00C0               	movwf	___fldiv@b+2
   815  01EB  0821               	movf	?___flmul+1,w
   816  01EC  00BF               	movwf	___fldiv@b+1
   817  01ED  0820               	movf	?___flmul,w
   818  01EE  00BE               	movwf	___fldiv@b
   819  01EF  3040               	movlw	64
   820  01F0  00BD               	movwf	___fldiv@a+3
   821  01F1  3000               	movlw	0
   822  01F2  00BC               	movwf	___fldiv@a+2
   823  01F3  3000               	movlw	0
   824  01F4  00BB               	movwf	___fldiv@a+1
   825  01F5  3000               	movlw	0
   826  01F6  00BA               	movwf	___fldiv@a
   827  01F7  120A  118A  22B5  120A  118A  	fcall	___fldiv
   828  01FC  1283               	bcf	3,5	;RP0=0, select bank0
   829  01FD  1303               	bcf	3,6	;RP1=0, select bank0
   830  01FE  083D               	movf	?___fldiv+3,w
   831  01FF  00D7               	movwf	___fltol@f1+3
   832  0200  083C               	movf	?___fldiv+2,w
   833  0201  00D6               	movwf	___fltol@f1+2
   834  0202  083B               	movf	?___fldiv+1,w
   835  0203  00D5               	movwf	___fltol@f1+1
   836  0204  083A               	movf	?___fldiv,w
   837  0205  00D4               	movwf	___fltol@f1
   838  0206  120A  118A  202C  120A  118A  	fcall	___fltol
   839  020B  1283               	bcf	3,5	;RP0=0, select bank0
   840  020C  1303               	bcf	3,6	;RP1=0, select bank0
   841  020D  0855               	movf	?___fltol+1,w
   842  020E  00E3               	movwf	_distance+1
   843  020F  0854               	movf	?___fltol,w
   844  0210  00E2               	movwf	_distance
   845  0211                     l1897:	
   846  0211  0863               	movf	_distance+1,w
   847  0212  3A80               	xorlw	128
   848  0213  00FF               	movwf	btemp+1
   849  0214  3080               	movlw	128
   850  0215  027F               	subwf	btemp+1,w
   851  0216  1D03               	skipz
   852  0217  2A1A               	goto	u2545
   853  0218  300A               	movlw	10
   854  0219  0262               	subwf	_distance,w
   855  021A                     u2545:	
   856  021A  1803               	skipnc
   857  021B  2A1D               	goto	u2541
   858  021C  2A1E               	goto	u2540
   859  021D                     u2541:	
   860  021D  2A23               	goto	l101
   861  021E                     u2540:	
   862  021E                     l1899:	
   863  021E  1283               	bcf	3,5	;RP0=0, select bank0
   864  021F  1303               	bcf	3,6	;RP1=0, select bank0
   865  0220  1405               	bsf	5,0	;volatile
   866  0221  1409               	bsf	9,0	;volatile
   867  0222  2A27               	goto	l1901
   868  0223                     l101:	
   869  0223  1283               	bcf	3,5	;RP0=0, select bank0
   870  0224  1303               	bcf	3,6	;RP1=0, select bank0
   871  0225  1005               	bcf	5,0	;volatile
   872  0226  1009               	bcf	9,0	;volatile
   873  0227                     l1901:	
   874  0227  300A               	movlw	10
   875  0228  00F9               	movwf	___awmod@divisor
   876  0229  3000               	movlw	0
   877  022A  00FA               	movwf	___awmod@divisor+1
   878  022B  3064               	movlw	100
   879  022C  00F0               	movwf	___awdiv@divisor
   880  022D  3000               	movlw	0
   881  022E  00F1               	movwf	___awdiv@divisor+1
   882  022F  0863               	movf	_distance+1,w
   883  0230  00F3               	movwf	___awdiv@dividend+1
   884  0231  0862               	movf	_distance,w
   885  0232  00F2               	movwf	___awdiv@dividend
   886  0233  120A  158A  2799  120A  118A  	fcall	___awdiv
   887  0238  0871               	movf	?___awdiv+1,w
   888  0239  00FC               	movwf	___awmod@dividend+1
   889  023A  0870               	movf	?___awdiv,w
   890  023B  00FB               	movwf	___awmod@dividend
   891  023C  120A  158A  2682  120A  118A  	fcall	___awmod
   892  0241  0879               	movf	?___awmod,w
   893  0242  1283               	bcf	3,5	;RP0=0, select bank0
   894  0243  1303               	bcf	3,6	;RP1=0, select bank0
   895  0244  00DF               	movwf	??_main
   896  0245  085F               	movf	??_main,w
   897  0246  00E6               	movwf	_d1
   898  0247  300A               	movlw	10
   899  0248  00F9               	movwf	___awmod@divisor
   900  0249  3000               	movlw	0
   901  024A  00FA               	movwf	___awmod@divisor+1
   902  024B  300A               	movlw	10
   903  024C  00F0               	movwf	___awdiv@divisor
   904  024D  3000               	movlw	0
   905  024E  00F1               	movwf	___awdiv@divisor+1
   906  024F  0863               	movf	_distance+1,w
   907  0250  00F3               	movwf	___awdiv@dividend+1
   908  0251  0862               	movf	_distance,w
   909  0252  00F2               	movwf	___awdiv@dividend
   910  0253  120A  158A  2799  120A  118A  	fcall	___awdiv
   911  0258  0871               	movf	?___awdiv+1,w
   912  0259  00FC               	movwf	___awmod@dividend+1
   913  025A  0870               	movf	?___awdiv,w
   914  025B  00FB               	movwf	___awmod@dividend
   915  025C  120A  158A  2682  120A  118A  	fcall	___awmod
   916  0261  0879               	movf	?___awmod,w
   917  0262  1283               	bcf	3,5	;RP0=0, select bank0
   918  0263  1303               	bcf	3,6	;RP1=0, select bank0
   919  0264  00DF               	movwf	??_main
   920  0265  085F               	movf	??_main,w
   921  0266  00E5               	movwf	_d2
   922  0267  300A               	movlw	10
   923  0268  00F9               	movwf	___awmod@divisor
   924  0269  3000               	movlw	0
   925  026A  00FA               	movwf	___awmod@divisor+1
   926  026B  0863               	movf	_distance+1,w
   927  026C  00FC               	movwf	___awmod@dividend+1
   928  026D  0862               	movf	_distance,w
   929  026E  00FB               	movwf	___awmod@dividend
   930  026F  120A  158A  2682  120A  118A  	fcall	___awmod
   931  0274  0879               	movf	?___awmod,w
   932  0275  1283               	bcf	3,5	;RP0=0, select bank0
   933  0276  1303               	bcf	3,6	;RP1=0, select bank0
   934  0277  00DF               	movwf	??_main
   935  0278  085F               	movf	??_main,w
   936  0279  00E4               	movwf	_d3
   937  027A  01F4               	clrf	Lcd_Set_Cursor@b
   938  027B  0AF4               	incf	Lcd_Set_Cursor@b,f
   939  027C  3001               	movlw	1
   940  027D  120A  158A  2630  120A  118A  	fcall	_Lcd_Set_Cursor
   941  0282                     l1903:	
   942  0282  3001               	movlw	(low ((STR_3-__stringbase)| (0+32768)))& (0+255)
   943  0283  120A  158A  260B  120A  118A  	fcall	_Lcd_Write_String
   944  0288                     l1905:	
   945  0288  01F4               	clrf	Lcd_Set_Cursor@b
   946  0289  0AF4               	incf	Lcd_Set_Cursor@b,f
   947  028A  3002               	movlw	2
   948  028B  120A  158A  2630  120A  118A  	fcall	_Lcd_Set_Cursor
   949  0290  301B               	movlw	(low ((STR_4-__stringbase)| (0+32768)))& (0+255)
   950  0291  120A  158A  260B  120A  118A  	fcall	_Lcd_Write_String
   951  0296                     l1907:	
   952  0296  1283               	bcf	3,5	;RP0=0, select bank0
   953  0297  1303               	bcf	3,6	;RP1=0, select bank0
   954  0298  0866               	movf	_d1,w
   955  0299  3E30               	addlw	48
   956  029A  120A  158A  273A  120A  118A  	fcall	_Lcd_Write_Char
   957  029F                     l1909:	
   958  029F  1283               	bcf	3,5	;RP0=0, select bank0
   959  02A0  1303               	bcf	3,6	;RP1=0, select bank0
   960  02A1  0865               	movf	_d2,w
   961  02A2  3E30               	addlw	48
   962  02A3  120A  158A  273A  120A  118A  	fcall	_Lcd_Write_Char
   963  02A8                     l1911:	
   964  02A8  1283               	bcf	3,5	;RP0=0, select bank0
   965  02A9  1303               	bcf	3,6	;RP1=0, select bank0
   966  02AA  0864               	movf	_d3,w
   967  02AB  3E30               	addlw	48
   968  02AC  120A  158A  273A  120A  118A  	fcall	_Lcd_Write_Char
   969  02B1  29A2               	goto	l1883
   970  02B2  120A  118A  2800   	ljmp	start
   971  02B5                     __end_of_main:	
   972                           
   973                           	psect	text1
   974  00A8                     __ptext1:	
   975 ;; *************** function ___xxtofl *****************
   976 ;; Defined at:
   977 ;;		line 10 in file "C:\Program Files (x86)\Microchip\xc8\v2.10\pic\sources\c90\common\xxtofl.c"
   978 ;; Parameters:    Size  Location     Type
   979 ;;  sign            1    wreg     unsigned char 
   980 ;;  val             4    0[COMMON] long 
   981 ;; Auto vars:     Size  Location     Type
   982 ;;  sign            1    8[COMMON] unsigned char 
   983 ;;  arg             4   10[COMMON] unsigned long 
   984 ;;  exp             1    9[COMMON] unsigned char 
   985 ;; Return value:  Size  Location     Type
   986 ;;                  4    0[COMMON] unsigned char 
   987 ;; Registers used:
   988 ;;		wreg, status,2, status,0
   989 ;; Tracked objects:
   990 ;;		On entry : 0/0
   991 ;;		On exit  : 0/0
   992 ;;		Unchanged: 0/0
   993 ;; Data sizes:     COMMON   BANK0   BANK1   BANK3   BANK2
   994 ;;      Params:         4       0       0       0       0
   995 ;;      Locals:         6       0       0       0       0
   996 ;;      Temps:          4       0       0       0       0
   997 ;;      Totals:        14       0       0       0       0
   998 ;;Total ram usage:       14 bytes
   999 ;; Hardware stack levels used:    1
  1000 ;; This function calls:
  1001 ;;		Nothing
  1002 ;; This function is called by:
  1003 ;;		_main
  1004 ;; This function uses a non-reentrant model
  1005 ;;
  1006                           
  1007                           
  1008                           ;psect for function ___xxtofl
  1009  00A8                     ___xxtofl:	
  1010                           
  1011                           ;incstack = 0
  1012                           ; Regs used in ___xxtofl: [wreg+status,2+status,0]
  1013                           ;___xxtofl@sign stored from wreg
  1014  00A8  00F8               	movwf	___xxtofl@sign
  1015  00A9                     l1811:	
  1016  00A9  0878               	movf	___xxtofl@sign,w
  1017  00AA  1903               	btfsc	3,2
  1018  00AB  28AD               	goto	u2381
  1019  00AC  28AE               	goto	u2380
  1020  00AD                     u2381:	
  1021  00AD  28C2               	goto	l1817
  1022  00AE                     u2380:	
  1023  00AE                     l1813:	
  1024  00AE  1FF3               	btfss	___xxtofl@val+3,7
  1025  00AF  28B1               	goto	u2391
  1026  00B0  28B2               	goto	u2390
  1027  00B1                     u2391:	
  1028  00B1  28C2               	goto	l1817
  1029  00B2                     u2390:	
  1030  00B2                     l1815:	
  1031  00B2  0970               	comf	___xxtofl@val,w
  1032  00B3  00FA               	movwf	___xxtofl@arg
  1033  00B4  0971               	comf	___xxtofl@val+1,w
  1034  00B5  00FB               	movwf	___xxtofl@arg+1
  1035  00B6  0972               	comf	___xxtofl@val+2,w
  1036  00B7  00FC               	movwf	___xxtofl@arg+2
  1037  00B8  0973               	comf	___xxtofl@val+3,w
  1038  00B9  00FD               	movwf	___xxtofl@arg+3
  1039  00BA  0AFA               	incf	___xxtofl@arg,f
  1040  00BB  1903               	skipnz
  1041  00BC  0AFB               	incf	___xxtofl@arg+1,f
  1042  00BD  1903               	skipnz
  1043  00BE  0AFC               	incf	___xxtofl@arg+2,f
  1044  00BF  1903               	skipnz
  1045  00C0  0AFD               	incf	___xxtofl@arg+3,f
  1046  00C1  28CA               	goto	l618
  1047  00C2                     l1817:	
  1048  00C2  0873               	movf	___xxtofl@val+3,w
  1049  00C3  00FD               	movwf	___xxtofl@arg+3
  1050  00C4  0872               	movf	___xxtofl@val+2,w
  1051  00C5  00FC               	movwf	___xxtofl@arg+2
  1052  00C6  0871               	movf	___xxtofl@val+1,w
  1053  00C7  00FB               	movwf	___xxtofl@arg+1
  1054  00C8  0870               	movf	___xxtofl@val,w
  1055  00C9  00FA               	movwf	___xxtofl@arg
  1056  00CA                     l618:	
  1057  00CA  0873               	movf	___xxtofl@val+3,w
  1058  00CB  0472               	iorwf	___xxtofl@val+2,w
  1059  00CC  0471               	iorwf	___xxtofl@val+1,w
  1060  00CD  0470               	iorwf	___xxtofl@val,w
  1061  00CE  1D03               	skipz
  1062  00CF  28D1               	goto	u2401
  1063  00D0  28D2               	goto	u2400
  1064  00D1                     u2401:	
  1065  00D1  28DB               	goto	l1823
  1066  00D2                     u2400:	
  1067  00D2                     l1819:	
  1068  00D2  3000               	movlw	0
  1069  00D3  00F3               	movwf	?___xxtofl+3
  1070  00D4  3000               	movlw	0
  1071  00D5  00F2               	movwf	?___xxtofl+2
  1072  00D6  3000               	movlw	0
  1073  00D7  00F1               	movwf	?___xxtofl+1
  1074  00D8  3000               	movlw	0
  1075  00D9  00F0               	movwf	?___xxtofl
  1076  00DA  2961               	goto	l620
  1077  00DB                     l1823:	
  1078  00DB  3096               	movlw	150
  1079  00DC  00F4               	movwf	??___xxtofl
  1080  00DD  0874               	movf	??___xxtofl,w
  1081  00DE  00F9               	movwf	___xxtofl@exp
  1082  00DF  28ED               	goto	l1827
  1083  00E0                     l1825:	
  1084  00E0  3001               	movlw	1
  1085  00E1  00F4               	movwf	??___xxtofl
  1086  00E2  0874               	movf	??___xxtofl,w
  1087  00E3  07F9               	addwf	___xxtofl@exp,f
  1088  00E4  3001               	movlw	1
  1089  00E5                     u2415:	
  1090  00E5  1003               	clrc
  1091  00E6  0CFD               	rrf	___xxtofl@arg+3,f
  1092  00E7  0CFC               	rrf	___xxtofl@arg+2,f
  1093  00E8  0CFB               	rrf	___xxtofl@arg+1,f
  1094  00E9  0CFA               	rrf	___xxtofl@arg,f
  1095  00EA  3EFF               	addlw	-1
  1096  00EB  1D03               	skipz
  1097  00EC  28E5               	goto	u2415
  1098  00ED                     l1827:	
  1099  00ED  30FE               	movlw	254
  1100  00EE  057D               	andwf	___xxtofl@arg+3,w
  1101  00EF  1D03               	btfss	3,2
  1102  00F0  28F2               	goto	u2421
  1103  00F1  28F3               	goto	u2420
  1104  00F2                     u2421:	
  1105  00F2  28E0               	goto	l1825
  1106  00F3                     u2420:	
  1107  00F3  290F               	goto	l624
  1108  00F4                     l1829:	
  1109  00F4  3001               	movlw	1
  1110  00F5  00F4               	movwf	??___xxtofl
  1111  00F6  0874               	movf	??___xxtofl,w
  1112  00F7  07F9               	addwf	___xxtofl@exp,f
  1113  00F8                     l1831:	
  1114  00F8  3001               	movlw	1
  1115  00F9  07FA               	addwf	___xxtofl@arg,f
  1116  00FA  3000               	movlw	0
  1117  00FB  1803               	skipnc
  1118  00FC  3001               	movlw	1
  1119  00FD  07FB               	addwf	___xxtofl@arg+1,f
  1120  00FE  3000               	movlw	0
  1121  00FF  1803               	skipnc
  1122  0100  3001               	movlw	1
  1123  0101  07FC               	addwf	___xxtofl@arg+2,f
  1124  0102  3000               	movlw	0
  1125  0103  1803               	skipnc
  1126  0104  3001               	movlw	1
  1127  0105  07FD               	addwf	___xxtofl@arg+3,f
  1128  0106                     l1833:	
  1129  0106  3001               	movlw	1
  1130  0107                     u2435:	
  1131  0107  1003               	clrc
  1132  0108  0CFD               	rrf	___xxtofl@arg+3,f
  1133  0109  0CFC               	rrf	___xxtofl@arg+2,f
  1134  010A  0CFB               	rrf	___xxtofl@arg+1,f
  1135  010B  0CFA               	rrf	___xxtofl@arg,f
  1136  010C  3EFF               	addlw	-1
  1137  010D  1D03               	skipz
  1138  010E  2907               	goto	u2435
  1139  010F                     l624:	
  1140  010F  30FF               	movlw	255
  1141  0110  057D               	andwf	___xxtofl@arg+3,w
  1142  0111  1D03               	btfss	3,2
  1143  0112  2914               	goto	u2441
  1144  0113  2915               	goto	u2440
  1145  0114                     u2441:	
  1146  0114  28F4               	goto	l1829
  1147  0115                     u2440:	
  1148  0115  2921               	goto	l1837
  1149  0116                     l1835:	
  1150  0116  3001               	movlw	1
  1151  0117  02F9               	subwf	___xxtofl@exp,f
  1152  0118  3001               	movlw	1
  1153  0119  00F4               	movwf	??___xxtofl
  1154  011A                     u2455:	
  1155  011A  1003               	clrc
  1156  011B  0DFA               	rlf	___xxtofl@arg,f
  1157  011C  0DFB               	rlf	___xxtofl@arg+1,f
  1158  011D  0DFC               	rlf	___xxtofl@arg+2,f
  1159  011E  0DFD               	rlf	___xxtofl@arg+3,f
  1160  011F  0BF4               	decfsz	??___xxtofl,f
  1161  0120  291A               	goto	u2455
  1162  0121                     l1837:	
  1163  0121  1BFC               	btfsc	___xxtofl@arg+2,7
  1164  0122  2924               	goto	u2461
  1165  0123  2925               	goto	u2460
  1166  0124                     u2461:	
  1167  0124  292B               	goto	l631
  1168  0125                     u2460:	
  1169  0125                     l1839:	
  1170  0125  3002               	movlw	2
  1171  0126  0279               	subwf	___xxtofl@exp,w
  1172  0127  1803               	skipnc
  1173  0128  292A               	goto	u2471
  1174  0129  292B               	goto	u2470
  1175  012A                     u2471:	
  1176  012A  2916               	goto	l1835
  1177  012B                     u2470:	
  1178  012B                     l631:	
  1179  012B  1879               	btfsc	___xxtofl@exp,0
  1180  012C  292E               	goto	u2481
  1181  012D  292F               	goto	u2480
  1182  012E                     u2481:	
  1183  012E  2937               	goto	l632
  1184  012F                     u2480:	
  1185  012F                     l1841:	
  1186  012F  30FF               	movlw	255
  1187  0130  05FA               	andwf	___xxtofl@arg,f
  1188  0131  30FF               	movlw	255
  1189  0132  05FB               	andwf	___xxtofl@arg+1,f
  1190  0133  307F               	movlw	127
  1191  0134  05FC               	andwf	___xxtofl@arg+2,f
  1192  0135  30FF               	movlw	255
  1193  0136  05FD               	andwf	___xxtofl@arg+3,f
  1194  0137                     l632:	
  1195  0137  1003               	clrc
  1196  0138  0CF9               	rrf	___xxtofl@exp,f
  1197  0139                     l1843:	
  1198  0139  0879               	movf	___xxtofl@exp,w
  1199  013A  00F4               	movwf	??___xxtofl
  1200  013B  01F5               	clrf	??___xxtofl+1
  1201  013C  01F6               	clrf	??___xxtofl+2
  1202  013D  01F7               	clrf	??___xxtofl+3
  1203  013E  3018               	movlw	24
  1204  013F                     u2495:	
  1205  013F  1003               	clrc
  1206  0140  0DF4               	rlf	??___xxtofl,f
  1207  0141  0DF5               	rlf	??___xxtofl+1,f
  1208  0142  0DF6               	rlf	??___xxtofl+2,f
  1209  0143  0DF7               	rlf	??___xxtofl+3,f
  1210  0144                     u2490:	
  1211  0144  3EFF               	addlw	-1
  1212  0145  1D03               	skipz
  1213  0146  293F               	goto	u2495
  1214  0147  0874               	movf	??___xxtofl,w
  1215  0148  04FA               	iorwf	___xxtofl@arg,f
  1216  0149  0875               	movf	??___xxtofl+1,w
  1217  014A  04FB               	iorwf	___xxtofl@arg+1,f
  1218  014B  0876               	movf	??___xxtofl+2,w
  1219  014C  04FC               	iorwf	___xxtofl@arg+2,f
  1220  014D  0877               	movf	??___xxtofl+3,w
  1221  014E  04FD               	iorwf	___xxtofl@arg+3,f
  1222  014F                     l1845:	
  1223  014F  0878               	movf	___xxtofl@sign,w
  1224  0150  1903               	btfsc	3,2
  1225  0151  2953               	goto	u2501
  1226  0152  2954               	goto	u2500
  1227  0153                     u2501:	
  1228  0153  2959               	goto	l1851
  1229  0154                     u2500:	
  1230  0154                     l1847:	
  1231  0154  1FF3               	btfss	___xxtofl@val+3,7
  1232  0155  2957               	goto	u2511
  1233  0156  2958               	goto	u2510
  1234  0157                     u2511:	
  1235  0157  2959               	goto	l1851
  1236  0158                     u2510:	
  1237  0158                     l1849:	
  1238  0158  17FD               	bsf	___xxtofl@arg+3,7
  1239  0159                     l1851:	
  1240  0159  087D               	movf	___xxtofl@arg+3,w
  1241  015A  00F3               	movwf	?___xxtofl+3
  1242  015B  087C               	movf	___xxtofl@arg+2,w
  1243  015C  00F2               	movwf	?___xxtofl+2
  1244  015D  087B               	movf	___xxtofl@arg+1,w
  1245  015E  00F1               	movwf	?___xxtofl+1
  1246  015F  087A               	movf	___xxtofl@arg,w
  1247  0160  00F0               	movwf	?___xxtofl
  1248  0161                     l620:	
  1249  0161  0008               	return
  1250  0162                     __end_of___xxtofl:	
  1251                           
  1252                           	psect	text2
  1253  002C                     __ptext2:	
  1254 ;; *************** function ___fltol *****************
  1255 ;; Defined at:
  1256 ;;		line 43 in file "C:\Program Files (x86)\Microchip\xc8\v2.10\pic\sources\c90\common\fltol.c"
  1257 ;; Parameters:    Size  Location     Type
  1258 ;;  f1              4   52[BANK0 ] unsigned char 
  1259 ;; Auto vars:     Size  Location     Type
  1260 ;;  exp1            1   62[BANK0 ] unsigned char 
  1261 ;;  sign1           1   61[BANK0 ] unsigned char 
  1262 ;; Return value:  Size  Location     Type
  1263 ;;                  4   52[BANK0 ] long 
  1264 ;; Registers used:
  1265 ;;		wreg, status,2, status,0
  1266 ;; Tracked objects:
  1267 ;;		On entry : 0/0
  1268 ;;		On exit  : 0/0
  1269 ;;		Unchanged: 0/0
  1270 ;; Data sizes:     COMMON   BANK0   BANK1   BANK3   BANK2
  1271 ;;      Params:         0       4       0       0       0
  1272 ;;      Locals:         0       2       0       0       0
  1273 ;;      Temps:          0       5       0       0       0
  1274 ;;      Totals:         0      11       0       0       0
  1275 ;;Total ram usage:       11 bytes
  1276 ;; Hardware stack levels used:    1
  1277 ;; This function calls:
  1278 ;;		Nothing
  1279 ;; This function is called by:
  1280 ;;		_main
  1281 ;; This function uses a non-reentrant model
  1282 ;;
  1283                           
  1284                           
  1285                           ;psect for function ___fltol
  1286  002C                     ___fltol:	
  1287  002C                     l1493:	
  1288                           ;incstack = 0
  1289                           ; Regs used in ___fltol: [wreg+status,2+status,0]
  1290                           
  1291  002C  1003               	clrc
  1292  002D  1283               	bcf	3,5	;RP0=0, select bank0
  1293  002E  1303               	bcf	3,6	;RP1=0, select bank0
  1294  002F  0D56               	rlf	___fltol@f1+2,w
  1295  0030  0D57               	rlf	___fltol@f1+3,w
  1296  0031  00D8               	movwf	??___fltol
  1297  0032  0858               	movf	??___fltol,w
  1298  0033  00DE               	movwf	___fltol@exp1
  1299  0034  085E               	movf	___fltol@exp1,w
  1300  0035  1D03               	btfss	3,2
  1301  0036  2838               	goto	u1621
  1302  0037  2839               	goto	u1620
  1303  0038                     u1621:	
  1304  0038  2842               	goto	l1499
  1305  0039                     u1620:	
  1306  0039                     l1495:	
  1307  0039  3000               	movlw	0
  1308  003A  00D7               	movwf	?___fltol+3
  1309  003B  3000               	movlw	0
  1310  003C  00D6               	movwf	?___fltol+2
  1311  003D  3000               	movlw	0
  1312  003E  00D5               	movwf	?___fltol+1
  1313  003F  3000               	movlw	0
  1314  0040  00D4               	movwf	?___fltol
  1315  0041  28A7               	goto	l377
  1316  0042                     l1499:	
  1317  0042  0854               	movf	___fltol@f1,w
  1318  0043  00D8               	movwf	??___fltol
  1319  0044  0855               	movf	___fltol@f1+1,w
  1320  0045  00D9               	movwf	??___fltol+1
  1321  0046  0856               	movf	___fltol@f1+2,w
  1322  0047  00DA               	movwf	??___fltol+2
  1323  0048  0857               	movf	___fltol@f1+3,w
  1324  0049  00DB               	movwf	??___fltol+3
  1325  004A  301F               	movlw	31
  1326  004B                     u1635:	
  1327  004B  1003               	clrc
  1328  004C  0CDB               	rrf	??___fltol+3,f
  1329  004D  0CDA               	rrf	??___fltol+2,f
  1330  004E  0CD9               	rrf	??___fltol+1,f
  1331  004F  0CD8               	rrf	??___fltol,f
  1332  0050                     u1630:	
  1333  0050  3EFF               	addlw	-1
  1334  0051  1D03               	skipz
  1335  0052  284B               	goto	u1635
  1336  0053  0858               	movf	??___fltol,w
  1337  0054  00DC               	movwf	??___fltol+4
  1338  0055  085C               	movf	??___fltol+4,w
  1339  0056  00DD               	movwf	___fltol@sign1
  1340  0057                     l1501:	
  1341  0057  17D6               	bsf	___fltol@f1+2,7
  1342  0058                     l1503:	
  1343  0058  30FF               	movlw	255
  1344  0059  05D4               	andwf	___fltol@f1,f
  1345  005A  30FF               	movlw	255
  1346  005B  05D5               	andwf	___fltol@f1+1,f
  1347  005C  30FF               	movlw	255
  1348  005D  05D6               	andwf	___fltol@f1+2,f
  1349  005E  3000               	movlw	0
  1350  005F  05D7               	andwf	___fltol@f1+3,f
  1351  0060                     l1505:	
  1352  0060  3096               	movlw	150
  1353  0061  02DE               	subwf	___fltol@exp1,f
  1354  0062                     l1507:	
  1355  0062  1FDE               	btfss	___fltol@exp1,7
  1356  0063  2865               	goto	u1641
  1357  0064  2866               	goto	u1640
  1358  0065                     u1641:	
  1359  0065  2880               	goto	l1517
  1360  0066                     u1640:	
  1361  0066                     l1509:	
  1362  0066  085E               	movf	___fltol@exp1,w
  1363  0067  3A80               	xorlw	128
  1364  0068  3E97               	addlw	151
  1365  0069  1803               	skipnc
  1366  006A  286C               	goto	u1651
  1367  006B  286D               	goto	u1650
  1368  006C                     u1651:	
  1369  006C  286E               	goto	l1515
  1370  006D                     u1650:	
  1371  006D  2839               	goto	l1495
  1372  006E                     l1515:	
  1373  006E  3001               	movlw	1
  1374  006F                     u1665:	
  1375  006F  1003               	clrc
  1376  0070  0CD7               	rrf	___fltol@f1+3,f
  1377  0071  0CD6               	rrf	___fltol@f1+2,f
  1378  0072  0CD5               	rrf	___fltol@f1+1,f
  1379  0073  0CD4               	rrf	___fltol@f1,f
  1380  0074  3EFF               	addlw	-1
  1381  0075  1D03               	skipz
  1382  0076  286F               	goto	u1665
  1383  0077  3001               	movlw	1
  1384  0078  00D8               	movwf	??___fltol
  1385  0079  0858               	movf	??___fltol,w
  1386  007A  07DE               	addwf	___fltol@exp1,f
  1387  007B  1D03               	btfss	3,2
  1388  007C  287E               	goto	u1671
  1389  007D  287F               	goto	u1670
  1390  007E                     u1671:	
  1391  007E  286E               	goto	l1515
  1392  007F                     u1670:	
  1393  007F  2897               	goto	l1525
  1394  0080                     l1517:	
  1395  0080  3020               	movlw	32
  1396  0081  025E               	subwf	___fltol@exp1,w
  1397  0082  1C03               	skipc
  1398  0083  2885               	goto	u1681
  1399  0084  2886               	goto	u1680
  1400  0085                     u1681:	
  1401  0085  2892               	goto	l384
  1402  0086                     u1680:	
  1403  0086  2839               	goto	l1495
  1404  0087                     l1523:	
  1405  0087  3001               	movlw	1
  1406  0088  00D8               	movwf	??___fltol
  1407  0089                     u1695:	
  1408  0089  1003               	clrc
  1409  008A  0DD4               	rlf	___fltol@f1,f
  1410  008B  0DD5               	rlf	___fltol@f1+1,f
  1411  008C  0DD6               	rlf	___fltol@f1+2,f
  1412  008D  0DD7               	rlf	___fltol@f1+3,f
  1413  008E  0BD8               	decfsz	??___fltol,f
  1414  008F  2889               	goto	u1695
  1415  0090  3001               	movlw	1
  1416  0091  02DE               	subwf	___fltol@exp1,f
  1417  0092                     l384:	
  1418  0092  085E               	movf	___fltol@exp1,w
  1419  0093  1D03               	btfss	3,2
  1420  0094  2896               	goto	u1701
  1421  0095  2897               	goto	u1700
  1422  0096                     u1701:	
  1423  0096  2887               	goto	l1523
  1424  0097                     u1700:	
  1425  0097                     l1525:	
  1426  0097  085D               	movf	___fltol@sign1,w
  1427  0098  1903               	btfsc	3,2
  1428  0099  289B               	goto	u1711
  1429  009A  289C               	goto	u1710
  1430  009B                     u1711:	
  1431  009B  28A7               	goto	l387
  1432  009C                     u1710:	
  1433  009C                     l1527:	
  1434  009C  09D4               	comf	___fltol@f1,f
  1435  009D  09D5               	comf	___fltol@f1+1,f
  1436  009E  09D6               	comf	___fltol@f1+2,f
  1437  009F  09D7               	comf	___fltol@f1+3,f
  1438  00A0  0AD4               	incf	___fltol@f1,f
  1439  00A1  1903               	skipnz
  1440  00A2  0AD5               	incf	___fltol@f1+1,f
  1441  00A3  1903               	skipnz
  1442  00A4  0AD6               	incf	___fltol@f1+2,f
  1443  00A5  1903               	skipnz
  1444  00A6  0AD7               	incf	___fltol@f1+3,f
  1445  00A7                     l387:	
  1446  00A7                     l377:	
  1447  00A7  0008               	return
  1448  00A8                     __end_of___fltol:	
  1449                           
  1450                           	psect	text3
  1451  0492                     __ptext3:	
  1452 ;; *************** function ___flmul *****************
  1453 ;; Defined at:
  1454 ;;		line 8 in file "C:\Program Files (x86)\Microchip\xc8\v2.10\pic\sources\c90\common\sprcmul.c"
  1455 ;; Parameters:    Size  Location     Type
  1456 ;;  b               4    0[BANK0 ] long 
  1457 ;;  a               4    4[BANK0 ] long 
  1458 ;; Auto vars:     Size  Location     Type
  1459 ;;  prod            4   20[BANK0 ] struct .
  1460 ;;  grs             4   14[BANK0 ] unsigned long 
  1461 ;;  temp            2   24[BANK0 ] struct .
  1462 ;;  bexp            1   19[BANK0 ] unsigned char 
  1463 ;;  aexp            1   18[BANK0 ] unsigned char 
  1464 ;;  sign            1   13[BANK0 ] unsigned char 
  1465 ;; Return value:  Size  Location     Type
  1466 ;;                  4    0[BANK0 ] unsigned char 
  1467 ;; Registers used:
  1468 ;;		wreg, status,2, status,0, btemp+1, pclath, cstack
  1469 ;; Tracked objects:
  1470 ;;		On entry : 0/0
  1471 ;;		On exit  : 0/0
  1472 ;;		Unchanged: 0/0
  1473 ;; Data sizes:     COMMON   BANK0   BANK1   BANK3   BANK2
  1474 ;;      Params:         0       8       0       0       0
  1475 ;;      Locals:         0      13       0       0       0
  1476 ;;      Temps:          0       5       0       0       0
  1477 ;;      Totals:         0      26       0       0       0
  1478 ;;Total ram usage:       26 bytes
  1479 ;; Hardware stack levels used:    1
  1480 ;; Hardware stack levels required when called:    1
  1481 ;; This function calls:
  1482 ;;		__Umul8_16
  1483 ;; This function is called by:
  1484 ;;		_main
  1485 ;; This function uses a non-reentrant model
  1486 ;;
  1487                           
  1488                           
  1489                           ;psect for function ___flmul
  1490  0492                     ___flmul:	
  1491  0492                     l1671:	
  1492                           ;incstack = 0
  1493                           ; Regs used in ___flmul: [wreg+status,2+status,0+btemp+1+pclath+cstack]
  1494                           
  1495  0492  1283               	bcf	3,5	;RP0=0, select bank0
  1496  0493  1303               	bcf	3,6	;RP1=0, select bank0
  1497  0494  0823               	movf	___flmul@b+3,w
  1498  0495  3980               	andlw	128
  1499  0496  00A8               	movwf	??___flmul
  1500  0497  0828               	movf	??___flmul,w
  1501  0498  00AD               	movwf	___flmul@sign
  1502  0499                     l1673:	
  1503  0499  0823               	movf	___flmul@b+3,w
  1504  049A  00A8               	movwf	??___flmul
  1505  049B  0728               	addwf	??___flmul,w
  1506  049C  00A9               	movwf	??___flmul+1
  1507  049D  0829               	movf	??___flmul+1,w
  1508  049E  00B3               	movwf	___flmul@bexp
  1509  049F                     l1675:	
  1510  049F  1FA2               	btfss	___flmul@b+2,7
  1511  04A0  2CA2               	goto	u2011
  1512  04A1  2CA3               	goto	u2010
  1513  04A2                     u2011:	
  1514  04A2  2CA4               	goto	l1679
  1515  04A3                     u2010:	
  1516  04A3                     l1677:	
  1517  04A3  1433               	bsf	___flmul@bexp,0
  1518  04A4                     l1679:	
  1519  04A4  0833               	movf	___flmul@bexp,w
  1520  04A5  1903               	btfsc	3,2
  1521  04A6  2CA8               	goto	u2021
  1522  04A7  2CA9               	goto	u2020
  1523  04A8                     u2021:	
  1524  04A8  2CB8               	goto	l1687
  1525  04A9                     u2020:	
  1526  04A9                     l1681:	
  1527  04A9  0A33               	incf	___flmul@bexp,w
  1528  04AA  1D03               	btfss	3,2
  1529  04AB  2CAD               	goto	u2031
  1530  04AC  2CAE               	goto	u2030
  1531  04AD                     u2031:	
  1532  04AD  2CB6               	goto	l1685
  1533  04AE                     u2030:	
  1534  04AE                     l1683:	
  1535  04AE  3000               	movlw	0
  1536  04AF  00A3               	movwf	___flmul@b+3
  1537  04B0  3000               	movlw	0
  1538  04B1  00A2               	movwf	___flmul@b+2
  1539  04B2  3000               	movlw	0
  1540  04B3  00A1               	movwf	___flmul@b+1
  1541  04B4  3000               	movlw	0
  1542  04B5  00A0               	movwf	___flmul@b
  1543  04B6                     l1685:	
  1544  04B6  17A2               	bsf	___flmul@b+2,7
  1545  04B7  2CC0               	goto	l1689
  1546  04B8                     l1687:	
  1547  04B8  3000               	movlw	0
  1548  04B9  00A3               	movwf	___flmul@b+3
  1549  04BA  3000               	movlw	0
  1550  04BB  00A2               	movwf	___flmul@b+2
  1551  04BC  3000               	movlw	0
  1552  04BD  00A1               	movwf	___flmul@b+1
  1553  04BE  3000               	movlw	0
  1554  04BF  00A0               	movwf	___flmul@b
  1555  04C0                     l1689:	
  1556  04C0  0827               	movf	___flmul@a+3,w
  1557  04C1  3980               	andlw	128
  1558  04C2  00A8               	movwf	??___flmul
  1559  04C3  0828               	movf	??___flmul,w
  1560  04C4  06AD               	xorwf	___flmul@sign,f
  1561  04C5                     l1691:	
  1562  04C5  0827               	movf	___flmul@a+3,w
  1563  04C6  00A8               	movwf	??___flmul
  1564  04C7  0728               	addwf	??___flmul,w
  1565  04C8  00A9               	movwf	??___flmul+1
  1566  04C9  0829               	movf	??___flmul+1,w
  1567  04CA  00B2               	movwf	___flmul@aexp
  1568  04CB                     l1693:	
  1569  04CB  1FA6               	btfss	___flmul@a+2,7
  1570  04CC  2CCE               	goto	u2041
  1571  04CD  2CCF               	goto	u2040
  1572  04CE                     u2041:	
  1573  04CE  2CD0               	goto	l1697
  1574  04CF                     u2040:	
  1575  04CF                     l1695:	
  1576  04CF  1432               	bsf	___flmul@aexp,0
  1577  04D0                     l1697:	
  1578  04D0  0832               	movf	___flmul@aexp,w
  1579  04D1  1903               	btfsc	3,2
  1580  04D2  2CD4               	goto	u2051
  1581  04D3  2CD5               	goto	u2050
  1582  04D4                     u2051:	
  1583  04D4  2CE4               	goto	l1705
  1584  04D5                     u2050:	
  1585  04D5                     l1699:	
  1586  04D5  0A32               	incf	___flmul@aexp,w
  1587  04D6  1D03               	btfss	3,2
  1588  04D7  2CD9               	goto	u2061
  1589  04D8  2CDA               	goto	u2060
  1590  04D9                     u2061:	
  1591  04D9  2CE2               	goto	l1703
  1592  04DA                     u2060:	
  1593  04DA                     l1701:	
  1594  04DA  3000               	movlw	0
  1595  04DB  00A7               	movwf	___flmul@a+3
  1596  04DC  3000               	movlw	0
  1597  04DD  00A6               	movwf	___flmul@a+2
  1598  04DE  3000               	movlw	0
  1599  04DF  00A5               	movwf	___flmul@a+1
  1600  04E0  3000               	movlw	0
  1601  04E1  00A4               	movwf	___flmul@a
  1602  04E2                     l1703:	
  1603  04E2  17A6               	bsf	___flmul@a+2,7
  1604  04E3  2CEC               	goto	l1707
  1605  04E4                     l1705:	
  1606  04E4  3000               	movlw	0
  1607  04E5  00A7               	movwf	___flmul@a+3
  1608  04E6  3000               	movlw	0
  1609  04E7  00A6               	movwf	___flmul@a+2
  1610  04E8  3000               	movlw	0
  1611  04E9  00A5               	movwf	___flmul@a+1
  1612  04EA  3000               	movlw	0
  1613  04EB  00A4               	movwf	___flmul@a
  1614  04EC                     l1707:	
  1615  04EC  0832               	movf	___flmul@aexp,w
  1616  04ED  1903               	btfsc	3,2
  1617  04EE  2CF0               	goto	u2071
  1618  04EF  2CF1               	goto	u2070
  1619  04F0                     u2071:	
  1620  04F0  2CF6               	goto	l1711
  1621  04F1                     u2070:	
  1622  04F1                     l1709:	
  1623  04F1  0833               	movf	___flmul@bexp,w
  1624  04F2  1D03               	btfss	3,2
  1625  04F3  2CF5               	goto	u2081
  1626  04F4  2CF6               	goto	u2080
  1627  04F5                     u2081:	
  1628  04F5  2CFF               	goto	l1715
  1629  04F6                     u2080:	
  1630  04F6                     l1711:	
  1631  04F6  3000               	movlw	0
  1632  04F7  00A3               	movwf	?___flmul+3
  1633  04F8  3000               	movlw	0
  1634  04F9  00A2               	movwf	?___flmul+2
  1635  04FA  3000               	movlw	0
  1636  04FB  00A1               	movwf	?___flmul+1
  1637  04FC  3000               	movlw	0
  1638  04FD  00A0               	movwf	?___flmul
  1639  04FE  2FF2               	goto	l580
  1640  04FF                     l1715:	
  1641  04FF  0820               	movf	___flmul@b,w
  1642  0500  00A8               	movwf	??___flmul
  1643  0501  0828               	movf	??___flmul,w
  1644  0502  00F0               	movwf	__Umul8_16@multiplicand
  1645  0503  0826               	movf	___flmul@a+2,w
  1646  0504  120A  118A  2005  120A  118A  	fcall	__Umul8_16
  1647  0509  0871               	movf	?__Umul8_16+1,w
  1648  050A  1283               	bcf	3,5	;RP0=0, select bank0
  1649  050B  1303               	bcf	3,6	;RP1=0, select bank0
  1650  050C  00B9               	movwf	___flmul@temp+1
  1651  050D  0870               	movf	?__Umul8_16,w
  1652  050E  00B8               	movwf	___flmul@temp
  1653  050F                     l1717:	
  1654  050F  0838               	movf	___flmul@temp,w
  1655  0510  00A8               	movwf	??___flmul
  1656  0511  01A9               	clrf	??___flmul+1
  1657  0512  01AA               	clrf	??___flmul+2
  1658  0513  01AB               	clrf	??___flmul+3
  1659  0514  082B               	movf	??___flmul+3,w
  1660  0515  00B1               	movwf	___flmul@grs+3
  1661  0516  082A               	movf	??___flmul+2,w
  1662  0517  00B0               	movwf	___flmul@grs+2
  1663  0518  0829               	movf	??___flmul+1,w
  1664  0519  00AF               	movwf	___flmul@grs+1
  1665  051A  0828               	movf	??___flmul,w
  1666  051B  00AE               	movwf	___flmul@grs
  1667  051C                     l1719:	
  1668  051C  0839               	movf	___flmul@temp+1,w
  1669  051D  00A8               	movwf	??___flmul
  1670  051E  01A9               	clrf	??___flmul+1
  1671  051F  01AA               	clrf	??___flmul+2
  1672  0520  01AB               	clrf	??___flmul+3
  1673  0521  082B               	movf	??___flmul+3,w
  1674  0522  00B7               	movwf	___flmul@prod+3
  1675  0523  082A               	movf	??___flmul+2,w
  1676  0524  00B6               	movwf	___flmul@prod+2
  1677  0525  0829               	movf	??___flmul+1,w
  1678  0526  00B5               	movwf	___flmul@prod+1
  1679  0527  0828               	movf	??___flmul,w
  1680  0528  00B4               	movwf	___flmul@prod
  1681  0529  0821               	movf	___flmul@b+1,w
  1682  052A  00A8               	movwf	??___flmul
  1683  052B  0828               	movf	??___flmul,w
  1684  052C  00F0               	movwf	__Umul8_16@multiplicand
  1685  052D  0825               	movf	___flmul@a+1,w
  1686  052E  120A  118A  2005  120A  118A  	fcall	__Umul8_16
  1687  0533  0871               	movf	?__Umul8_16+1,w
  1688  0534  1283               	bcf	3,5	;RP0=0, select bank0
  1689  0535  1303               	bcf	3,6	;RP1=0, select bank0
  1690  0536  00B9               	movwf	___flmul@temp+1
  1691  0537  0870               	movf	?__Umul8_16,w
  1692  0538  00B8               	movwf	___flmul@temp
  1693  0539                     l1721:	
  1694  0539  0838               	movf	___flmul@temp,w
  1695  053A  00A8               	movwf	??___flmul
  1696  053B  01A9               	clrf	??___flmul+1
  1697  053C  01AA               	clrf	??___flmul+2
  1698  053D  01AB               	clrf	??___flmul+3
  1699  053E  0828               	movf	??___flmul,w
  1700  053F  07AE               	addwf	___flmul@grs,f
  1701  0540  0829               	movf	??___flmul+1,w
  1702  0541  1103               	clrz
  1703  0542  1803               	skipnc
  1704  0543  3E01               	addlw	1
  1705  0544  1903               	skipnz
  1706  0545  2D47               	goto	u2091
  1707  0546  07AF               	addwf	___flmul@grs+1,f
  1708  0547                     u2091:	
  1709  0547  082A               	movf	??___flmul+2,w
  1710  0548  1103               	clrz
  1711  0549  1803               	skipnc
  1712  054A  3E01               	addlw	1
  1713  054B  1903               	skipnz
  1714  054C  2D4E               	goto	u2092
  1715  054D  07B0               	addwf	___flmul@grs+2,f
  1716  054E                     u2092:	
  1717  054E  082B               	movf	??___flmul+3,w
  1718  054F  1103               	clrz
  1719  0550  1803               	skipnc
  1720  0551  3E01               	addlw	1
  1721  0552  1903               	skipnz
  1722  0553  2D55               	goto	u2093
  1723  0554  07B1               	addwf	___flmul@grs+3,f
  1724  0555                     u2093:	
  1725  0555                     l1723:	
  1726  0555  0839               	movf	___flmul@temp+1,w
  1727  0556  00A8               	movwf	??___flmul
  1728  0557  01A9               	clrf	??___flmul+1
  1729  0558  01AA               	clrf	??___flmul+2
  1730  0559  01AB               	clrf	??___flmul+3
  1731  055A  0828               	movf	??___flmul,w
  1732  055B  07B4               	addwf	___flmul@prod,f
  1733  055C  0829               	movf	??___flmul+1,w
  1734  055D  1103               	clrz
  1735  055E  1803               	skipnc
  1736  055F  3E01               	addlw	1
  1737  0560  1903               	skipnz
  1738  0561  2D63               	goto	u2101
  1739  0562  07B5               	addwf	___flmul@prod+1,f
  1740  0563                     u2101:	
  1741  0563  082A               	movf	??___flmul+2,w
  1742  0564  1103               	clrz
  1743  0565  1803               	skipnc
  1744  0566  3E01               	addlw	1
  1745  0567  1903               	skipnz
  1746  0568  2D6A               	goto	u2102
  1747  0569  07B6               	addwf	___flmul@prod+2,f
  1748  056A                     u2102:	
  1749  056A  082B               	movf	??___flmul+3,w
  1750  056B  1103               	clrz
  1751  056C  1803               	skipnc
  1752  056D  3E01               	addlw	1
  1753  056E  1903               	skipnz
  1754  056F  2D71               	goto	u2103
  1755  0570  07B7               	addwf	___flmul@prod+3,f
  1756  0571                     u2103:	
  1757  0571  0822               	movf	___flmul@b+2,w
  1758  0572  00A8               	movwf	??___flmul
  1759  0573  0828               	movf	??___flmul,w
  1760  0574  00F0               	movwf	__Umul8_16@multiplicand
  1761  0575  0824               	movf	___flmul@a,w
  1762  0576  120A  118A  2005  120A  118A  	fcall	__Umul8_16
  1763  057B  0871               	movf	?__Umul8_16+1,w
  1764  057C  1283               	bcf	3,5	;RP0=0, select bank0
  1765  057D  1303               	bcf	3,6	;RP1=0, select bank0
  1766  057E  00B9               	movwf	___flmul@temp+1
  1767  057F  0870               	movf	?__Umul8_16,w
  1768  0580  00B8               	movwf	___flmul@temp
  1769  0581                     l1725:	
  1770  0581  0838               	movf	___flmul@temp,w
  1771  0582  00A8               	movwf	??___flmul
  1772  0583  01A9               	clrf	??___flmul+1
  1773  0584  01AA               	clrf	??___flmul+2
  1774  0585  01AB               	clrf	??___flmul+3
  1775  0586  0828               	movf	??___flmul,w
  1776  0587  07AE               	addwf	___flmul@grs,f
  1777  0588  0829               	movf	??___flmul+1,w
  1778  0589  1103               	clrz
  1779  058A  1803               	skipnc
  1780  058B  3E01               	addlw	1
  1781  058C  1903               	skipnz
  1782  058D  2D8F               	goto	u2111
  1783  058E  07AF               	addwf	___flmul@grs+1,f
  1784  058F                     u2111:	
  1785  058F  082A               	movf	??___flmul+2,w
  1786  0590  1103               	clrz
  1787  0591  1803               	skipnc
  1788  0592  3E01               	addlw	1
  1789  0593  1903               	skipnz
  1790  0594  2D96               	goto	u2112
  1791  0595  07B0               	addwf	___flmul@grs+2,f
  1792  0596                     u2112:	
  1793  0596  082B               	movf	??___flmul+3,w
  1794  0597  1103               	clrz
  1795  0598  1803               	skipnc
  1796  0599  3E01               	addlw	1
  1797  059A  1903               	skipnz
  1798  059B  2D9D               	goto	u2113
  1799  059C  07B1               	addwf	___flmul@grs+3,f
  1800  059D                     u2113:	
  1801  059D                     l1727:	
  1802  059D  0839               	movf	___flmul@temp+1,w
  1803  059E  00A8               	movwf	??___flmul
  1804  059F  01A9               	clrf	??___flmul+1
  1805  05A0  01AA               	clrf	??___flmul+2
  1806  05A1  01AB               	clrf	??___flmul+3
  1807  05A2  0828               	movf	??___flmul,w
  1808  05A3  07B4               	addwf	___flmul@prod,f
  1809  05A4  0829               	movf	??___flmul+1,w
  1810  05A5  1103               	clrz
  1811  05A6  1803               	skipnc
  1812  05A7  3E01               	addlw	1
  1813  05A8  1903               	skipnz
  1814  05A9  2DAB               	goto	u2121
  1815  05AA  07B5               	addwf	___flmul@prod+1,f
  1816  05AB                     u2121:	
  1817  05AB  082A               	movf	??___flmul+2,w
  1818  05AC  1103               	clrz
  1819  05AD  1803               	skipnc
  1820  05AE  3E01               	addlw	1
  1821  05AF  1903               	skipnz
  1822  05B0  2DB2               	goto	u2122
  1823  05B1  07B6               	addwf	___flmul@prod+2,f
  1824  05B2                     u2122:	
  1825  05B2  082B               	movf	??___flmul+3,w
  1826  05B3  1103               	clrz
  1827  05B4  1803               	skipnc
  1828  05B5  3E01               	addlw	1
  1829  05B6  1903               	skipnz
  1830  05B7  2DB9               	goto	u2123
  1831  05B8  07B7               	addwf	___flmul@prod+3,f
  1832  05B9                     u2123:	
  1833  05B9                     l1729:	
  1834  05B9  3008               	movlw	8
  1835  05BA  00A8               	movwf	??___flmul
  1836  05BB                     u2135:	
  1837  05BB  1003               	clrc
  1838  05BC  0DAE               	rlf	___flmul@grs,f
  1839  05BD  0DAF               	rlf	___flmul@grs+1,f
  1840  05BE  0DB0               	rlf	___flmul@grs+2,f
  1841  05BF  0DB1               	rlf	___flmul@grs+3,f
  1842  05C0  0BA8               	decfsz	??___flmul,f
  1843  05C1  2DBB               	goto	u2135
  1844  05C2                     l1731:	
  1845  05C2  0821               	movf	___flmul@b+1,w
  1846  05C3  00A8               	movwf	??___flmul
  1847  05C4  0828               	movf	??___flmul,w
  1848  05C5  00F0               	movwf	__Umul8_16@multiplicand
  1849  05C6  0824               	movf	___flmul@a,w
  1850  05C7  120A  118A  2005  120A  118A  	fcall	__Umul8_16
  1851  05CC  0871               	movf	?__Umul8_16+1,w
  1852  05CD  1283               	bcf	3,5	;RP0=0, select bank0
  1853  05CE  1303               	bcf	3,6	;RP1=0, select bank0
  1854  05CF  00B9               	movwf	___flmul@temp+1
  1855  05D0  0870               	movf	?__Umul8_16,w
  1856  05D1  00B8               	movwf	___flmul@temp
  1857  05D2                     l1733:	
  1858  05D2  0838               	movf	___flmul@temp,w
  1859  05D3  00A8               	movwf	??___flmul
  1860  05D4  0839               	movf	___flmul@temp+1,w
  1861  05D5  00A9               	movwf	??___flmul+1
  1862  05D6  01AA               	clrf	??___flmul+2
  1863  05D7  01AB               	clrf	??___flmul+3
  1864  05D8  0828               	movf	??___flmul,w
  1865  05D9  07AE               	addwf	___flmul@grs,f
  1866  05DA  0829               	movf	??___flmul+1,w
  1867  05DB  1103               	clrz
  1868  05DC  1803               	skipnc
  1869  05DD  3E01               	addlw	1
  1870  05DE  1903               	skipnz
  1871  05DF  2DE1               	goto	u2141
  1872  05E0  07AF               	addwf	___flmul@grs+1,f
  1873  05E1                     u2141:	
  1874  05E1  082A               	movf	??___flmul+2,w
  1875  05E2  1103               	clrz
  1876  05E3  1803               	skipnc
  1877  05E4  3E01               	addlw	1
  1878  05E5  1903               	skipnz
  1879  05E6  2DE8               	goto	u2142
  1880  05E7  07B0               	addwf	___flmul@grs+2,f
  1881  05E8                     u2142:	
  1882  05E8  082B               	movf	??___flmul+3,w
  1883  05E9  1103               	clrz
  1884  05EA  1803               	skipnc
  1885  05EB  3E01               	addlw	1
  1886  05EC  1903               	skipnz
  1887  05ED  2DEF               	goto	u2143
  1888  05EE  07B1               	addwf	___flmul@grs+3,f
  1889  05EF                     u2143:	
  1890  05EF                     l1735:	
  1891  05EF  0820               	movf	___flmul@b,w
  1892  05F0  00A8               	movwf	??___flmul
  1893  05F1  0828               	movf	??___flmul,w
  1894  05F2  00F0               	movwf	__Umul8_16@multiplicand
  1895  05F3  0825               	movf	___flmul@a+1,w
  1896  05F4  120A  118A  2005  120A  118A  	fcall	__Umul8_16
  1897  05F9  0871               	movf	?__Umul8_16+1,w
  1898  05FA  1283               	bcf	3,5	;RP0=0, select bank0
  1899  05FB  1303               	bcf	3,6	;RP1=0, select bank0
  1900  05FC  00B9               	movwf	___flmul@temp+1
  1901  05FD  0870               	movf	?__Umul8_16,w
  1902  05FE  00B8               	movwf	___flmul@temp
  1903  05FF                     l1737:	
  1904  05FF  0838               	movf	___flmul@temp,w
  1905  0600  00A8               	movwf	??___flmul
  1906  0601  0839               	movf	___flmul@temp+1,w
  1907  0602  00A9               	movwf	??___flmul+1
  1908  0603  01AA               	clrf	??___flmul+2
  1909  0604  01AB               	clrf	??___flmul+3
  1910  0605  0828               	movf	??___flmul,w
  1911  0606  07AE               	addwf	___flmul@grs,f
  1912  0607  0829               	movf	??___flmul+1,w
  1913  0608  1103               	clrz
  1914  0609  1803               	skipnc
  1915  060A  3E01               	addlw	1
  1916  060B  1903               	skipnz
  1917  060C  2E0E               	goto	u2151
  1918  060D  07AF               	addwf	___flmul@grs+1,f
  1919  060E                     u2151:	
  1920  060E  082A               	movf	??___flmul+2,w
  1921  060F  1103               	clrz
  1922  0610  1803               	skipnc
  1923  0611  3E01               	addlw	1
  1924  0612  1903               	skipnz
  1925  0613  2E15               	goto	u2152
  1926  0614  07B0               	addwf	___flmul@grs+2,f
  1927  0615                     u2152:	
  1928  0615  082B               	movf	??___flmul+3,w
  1929  0616  1103               	clrz
  1930  0617  1803               	skipnc
  1931  0618  3E01               	addlw	1
  1932  0619  1903               	skipnz
  1933  061A  2E1C               	goto	u2153
  1934  061B  07B1               	addwf	___flmul@grs+3,f
  1935  061C                     u2153:	
  1936  061C                     l1739:	
  1937  061C  3008               	movlw	8
  1938  061D  00A8               	movwf	??___flmul
  1939  061E                     u2165:	
  1940  061E  1003               	clrc
  1941  061F  0DAE               	rlf	___flmul@grs,f
  1942  0620  0DAF               	rlf	___flmul@grs+1,f
  1943  0621  0DB0               	rlf	___flmul@grs+2,f
  1944  0622  0DB1               	rlf	___flmul@grs+3,f
  1945  0623  0BA8               	decfsz	??___flmul,f
  1946  0624  2E1E               	goto	u2165
  1947  0625  0820               	movf	___flmul@b,w
  1948  0626  00A8               	movwf	??___flmul
  1949  0627  0828               	movf	??___flmul,w
  1950  0628  00F0               	movwf	__Umul8_16@multiplicand
  1951  0629  0824               	movf	___flmul@a,w
  1952  062A  120A  118A  2005  120A  118A  	fcall	__Umul8_16
  1953  062F  0871               	movf	?__Umul8_16+1,w
  1954  0630  1283               	bcf	3,5	;RP0=0, select bank0
  1955  0631  1303               	bcf	3,6	;RP1=0, select bank0
  1956  0632  00B9               	movwf	___flmul@temp+1
  1957  0633  0870               	movf	?__Umul8_16,w
  1958  0634  00B8               	movwf	___flmul@temp
  1959  0635                     l1741:	
  1960  0635  0838               	movf	___flmul@temp,w
  1961  0636  00A8               	movwf	??___flmul
  1962  0637  0839               	movf	___flmul@temp+1,w
  1963  0638  00A9               	movwf	??___flmul+1
  1964  0639  01AA               	clrf	??___flmul+2
  1965  063A  01AB               	clrf	??___flmul+3
  1966  063B  0828               	movf	??___flmul,w
  1967  063C  07AE               	addwf	___flmul@grs,f
  1968  063D  0829               	movf	??___flmul+1,w
  1969  063E  1103               	clrz
  1970  063F  1803               	skipnc
  1971  0640  3E01               	addlw	1
  1972  0641  1903               	skipnz
  1973  0642  2E44               	goto	u2171
  1974  0643  07AF               	addwf	___flmul@grs+1,f
  1975  0644                     u2171:	
  1976  0644  082A               	movf	??___flmul+2,w
  1977  0645  1103               	clrz
  1978  0646  1803               	skipnc
  1979  0647  3E01               	addlw	1
  1980  0648  1903               	skipnz
  1981  0649  2E4B               	goto	u2172
  1982  064A  07B0               	addwf	___flmul@grs+2,f
  1983  064B                     u2172:	
  1984  064B  082B               	movf	??___flmul+3,w
  1985  064C  1103               	clrz
  1986  064D  1803               	skipnc
  1987  064E  3E01               	addlw	1
  1988  064F  1903               	skipnz
  1989  0650  2E52               	goto	u2173
  1990  0651  07B1               	addwf	___flmul@grs+3,f
  1991  0652                     u2173:	
  1992  0652                     l1743:	
  1993  0652  0821               	movf	___flmul@b+1,w
  1994  0653  00A8               	movwf	??___flmul
  1995  0654  0828               	movf	??___flmul,w
  1996  0655  00F0               	movwf	__Umul8_16@multiplicand
  1997  0656  0826               	movf	___flmul@a+2,w
  1998  0657  120A  118A  2005  120A  118A  	fcall	__Umul8_16
  1999  065C  0871               	movf	?__Umul8_16+1,w
  2000  065D  1283               	bcf	3,5	;RP0=0, select bank0
  2001  065E  1303               	bcf	3,6	;RP1=0, select bank0
  2002  065F  00B9               	movwf	___flmul@temp+1
  2003  0660  0870               	movf	?__Umul8_16,w
  2004  0661  00B8               	movwf	___flmul@temp
  2005  0662  0838               	movf	___flmul@temp,w
  2006  0663  00A8               	movwf	??___flmul
  2007  0664  0839               	movf	___flmul@temp+1,w
  2008  0665  00A9               	movwf	??___flmul+1
  2009  0666  01AA               	clrf	??___flmul+2
  2010  0667  01AB               	clrf	??___flmul+3
  2011  0668  0828               	movf	??___flmul,w
  2012  0669  07B4               	addwf	___flmul@prod,f
  2013  066A  0829               	movf	??___flmul+1,w
  2014  066B  1103               	clrz
  2015  066C  1803               	skipnc
  2016  066D  3E01               	addlw	1
  2017  066E  1903               	skipnz
  2018  066F  2E71               	goto	u2181
  2019  0670  07B5               	addwf	___flmul@prod+1,f
  2020  0671                     u2181:	
  2021  0671  082A               	movf	??___flmul+2,w
  2022  0672  1103               	clrz
  2023  0673  1803               	skipnc
  2024  0674  3E01               	addlw	1
  2025  0675  1903               	skipnz
  2026  0676  2E78               	goto	u2182
  2027  0677  07B6               	addwf	___flmul@prod+2,f
  2028  0678                     u2182:	
  2029  0678  082B               	movf	??___flmul+3,w
  2030  0679  1103               	clrz
  2031  067A  1803               	skipnc
  2032  067B  3E01               	addlw	1
  2033  067C  1903               	skipnz
  2034  067D  2E7F               	goto	u2183
  2035  067E  07B7               	addwf	___flmul@prod+3,f
  2036  067F                     u2183:	
  2037  067F                     l1745:	
  2038  067F  0822               	movf	___flmul@b+2,w
  2039  0680  00A8               	movwf	??___flmul
  2040  0681  0828               	movf	??___flmul,w
  2041  0682  00F0               	movwf	__Umul8_16@multiplicand
  2042  0683  0825               	movf	___flmul@a+1,w
  2043  0684  120A  118A  2005  120A  118A  	fcall	__Umul8_16
  2044  0689  0871               	movf	?__Umul8_16+1,w
  2045  068A  1283               	bcf	3,5	;RP0=0, select bank0
  2046  068B  1303               	bcf	3,6	;RP1=0, select bank0
  2047  068C  00B9               	movwf	___flmul@temp+1
  2048  068D  0870               	movf	?__Umul8_16,w
  2049  068E  00B8               	movwf	___flmul@temp
  2050  068F                     l1747:	
  2051  068F  0838               	movf	___flmul@temp,w
  2052  0690  00A8               	movwf	??___flmul
  2053  0691  0839               	movf	___flmul@temp+1,w
  2054  0692  00A9               	movwf	??___flmul+1
  2055  0693  01AA               	clrf	??___flmul+2
  2056  0694  01AB               	clrf	??___flmul+3
  2057  0695  0828               	movf	??___flmul,w
  2058  0696  07B4               	addwf	___flmul@prod,f
  2059  0697  0829               	movf	??___flmul+1,w
  2060  0698  1103               	clrz
  2061  0699  1803               	skipnc
  2062  069A  3E01               	addlw	1
  2063  069B  1903               	skipnz
  2064  069C  2E9E               	goto	u2191
  2065  069D  07B5               	addwf	___flmul@prod+1,f
  2066  069E                     u2191:	
  2067  069E  082A               	movf	??___flmul+2,w
  2068  069F  1103               	clrz
  2069  06A0  1803               	skipnc
  2070  06A1  3E01               	addlw	1
  2071  06A2  1903               	skipnz
  2072  06A3  2EA5               	goto	u2192
  2073  06A4  07B6               	addwf	___flmul@prod+2,f
  2074  06A5                     u2192:	
  2075  06A5  082B               	movf	??___flmul+3,w
  2076  06A6  1103               	clrz
  2077  06A7  1803               	skipnc
  2078  06A8  3E01               	addlw	1
  2079  06A9  1903               	skipnz
  2080  06AA  2EAC               	goto	u2193
  2081  06AB  07B7               	addwf	___flmul@prod+3,f
  2082  06AC                     u2193:	
  2083  06AC  0822               	movf	___flmul@b+2,w
  2084  06AD  00A8               	movwf	??___flmul
  2085  06AE  0828               	movf	??___flmul,w
  2086  06AF  00F0               	movwf	__Umul8_16@multiplicand
  2087  06B0  0826               	movf	___flmul@a+2,w
  2088  06B1  120A  118A  2005  120A  118A  	fcall	__Umul8_16
  2089  06B6  0871               	movf	?__Umul8_16+1,w
  2090  06B7  1283               	bcf	3,5	;RP0=0, select bank0
  2091  06B8  1303               	bcf	3,6	;RP1=0, select bank0
  2092  06B9  00B9               	movwf	___flmul@temp+1
  2093  06BA  0870               	movf	?__Umul8_16,w
  2094  06BB  00B8               	movwf	___flmul@temp
  2095  06BC                     l1749:	
  2096  06BC  0838               	movf	___flmul@temp,w
  2097  06BD  00A8               	movwf	??___flmul
  2098  06BE  0839               	movf	___flmul@temp+1,w
  2099  06BF  00A9               	movwf	??___flmul+1
  2100  06C0  01AA               	clrf	??___flmul+2
  2101  06C1  01AB               	clrf	??___flmul+3
  2102  06C2  3008               	movlw	8
  2103  06C3                     u2205:	
  2104  06C3  1003               	clrc
  2105  06C4  0DA8               	rlf	??___flmul,f
  2106  06C5  0DA9               	rlf	??___flmul+1,f
  2107  06C6  0DAA               	rlf	??___flmul+2,f
  2108  06C7  0DAB               	rlf	??___flmul+3,f
  2109  06C8                     u2200:	
  2110  06C8  3EFF               	addlw	-1
  2111  06C9  1D03               	skipz
  2112  06CA  2EC3               	goto	u2205
  2113  06CB  0828               	movf	??___flmul,w
  2114  06CC  07B4               	addwf	___flmul@prod,f
  2115  06CD  0829               	movf	??___flmul+1,w
  2116  06CE  1103               	clrz
  2117  06CF  1803               	skipnc
  2118  06D0  3E01               	addlw	1
  2119  06D1  1903               	skipnz
  2120  06D2  2ED4               	goto	u2211
  2121  06D3  07B5               	addwf	___flmul@prod+1,f
  2122  06D4                     u2211:	
  2123  06D4  082A               	movf	??___flmul+2,w
  2124  06D5  1103               	clrz
  2125  06D6  1803               	skipnc
  2126  06D7  3E01               	addlw	1
  2127  06D8  1903               	skipnz
  2128  06D9  2EDB               	goto	u2212
  2129  06DA  07B6               	addwf	___flmul@prod+2,f
  2130  06DB                     u2212:	
  2131  06DB  082B               	movf	??___flmul+3,w
  2132  06DC  1103               	clrz
  2133  06DD  1803               	skipnc
  2134  06DE  3E01               	addlw	1
  2135  06DF  1903               	skipnz
  2136  06E0  2EE2               	goto	u2213
  2137  06E1  07B7               	addwf	___flmul@prod+3,f
  2138  06E2                     u2213:	
  2139  06E2                     l1751:	
  2140  06E2  082E               	movf	___flmul@grs,w
  2141  06E3  00A8               	movwf	??___flmul
  2142  06E4  082F               	movf	___flmul@grs+1,w
  2143  06E5  00A9               	movwf	??___flmul+1
  2144  06E6  0830               	movf	___flmul@grs+2,w
  2145  06E7  00AA               	movwf	??___flmul+2
  2146  06E8  0831               	movf	___flmul@grs+3,w
  2147  06E9  00AB               	movwf	??___flmul+3
  2148  06EA  3018               	movlw	24
  2149  06EB                     u2225:	
  2150  06EB  1003               	clrc
  2151  06EC  0CAB               	rrf	??___flmul+3,f
  2152  06ED  0CAA               	rrf	??___flmul+2,f
  2153  06EE  0CA9               	rrf	??___flmul+1,f
  2154  06EF  0CA8               	rrf	??___flmul,f
  2155  06F0                     u2220:	
  2156  06F0  3EFF               	addlw	-1
  2157  06F1  1D03               	skipz
  2158  06F2  2EEB               	goto	u2225
  2159  06F3  0828               	movf	??___flmul,w
  2160  06F4  07B4               	addwf	___flmul@prod,f
  2161  06F5  0829               	movf	??___flmul+1,w
  2162  06F6  1103               	clrz
  2163  06F7  1803               	skipnc
  2164  06F8  3E01               	addlw	1
  2165  06F9  1903               	skipnz
  2166  06FA  2EFC               	goto	u2231
  2167  06FB  07B5               	addwf	___flmul@prod+1,f
  2168  06FC                     u2231:	
  2169  06FC  082A               	movf	??___flmul+2,w
  2170  06FD  1103               	clrz
  2171  06FE  1803               	skipnc
  2172  06FF  3E01               	addlw	1
  2173  0700  1903               	skipnz
  2174  0701  2F03               	goto	u2232
  2175  0702  07B6               	addwf	___flmul@prod+2,f
  2176  0703                     u2232:	
  2177  0703  082B               	movf	??___flmul+3,w
  2178  0704  1103               	clrz
  2179  0705  1803               	skipnc
  2180  0706  3E01               	addlw	1
  2181  0707  1903               	skipnz
  2182  0708  2F0A               	goto	u2233
  2183  0709  07B7               	addwf	___flmul@prod+3,f
  2184  070A                     u2233:	
  2185  070A                     l1753:	
  2186  070A  3008               	movlw	8
  2187  070B  00A8               	movwf	??___flmul
  2188  070C                     u2245:	
  2189  070C  1003               	clrc
  2190  070D  0DAE               	rlf	___flmul@grs,f
  2191  070E  0DAF               	rlf	___flmul@grs+1,f
  2192  070F  0DB0               	rlf	___flmul@grs+2,f
  2193  0710  0DB1               	rlf	___flmul@grs+3,f
  2194  0711  0BA8               	decfsz	??___flmul,f
  2195  0712  2F0C               	goto	u2245
  2196  0713                     l1755:	
  2197  0713  0833               	movf	___flmul@bexp,w
  2198  0714  0732               	addwf	___flmul@aexp,w
  2199  0715  00A8               	movwf	??___flmul
  2200  0716  01A9               	clrf	??___flmul+1
  2201  0717  0DA9               	rlf	??___flmul+1,f
  2202  0718  0828               	movf	??___flmul,w
  2203  0719  3E82               	addlw	130
  2204  071A  00B8               	movwf	___flmul@temp
  2205  071B  0829               	movf	??___flmul+1,w
  2206  071C  1803               	skipnc
  2207  071D  3E01               	addlw	1
  2208  071E  3EFF               	addlw	255
  2209  071F  00B9               	movwf	___flmul@temp+1
  2210  0720  2F3E               	goto	l1767
  2211  0721                     l1757:	
  2212  0721  3001               	movlw	1
  2213  0722  00A8               	movwf	??___flmul
  2214  0723                     u2255:	
  2215  0723  1003               	clrc
  2216  0724  0DB4               	rlf	___flmul@prod,f
  2217  0725  0DB5               	rlf	___flmul@prod+1,f
  2218  0726  0DB6               	rlf	___flmul@prod+2,f
  2219  0727  0DB7               	rlf	___flmul@prod+3,f
  2220  0728  0BA8               	decfsz	??___flmul,f
  2221  0729  2F23               	goto	u2255
  2222  072A                     l1759:	
  2223  072A  1FB1               	btfss	___flmul@grs+3,7
  2224  072B  2F2D               	goto	u2261
  2225  072C  2F2E               	goto	u2260
  2226  072D                     u2261:	
  2227  072D  2F2F               	goto	l1763
  2228  072E                     u2260:	
  2229  072E                     l1761:	
  2230  072E  1434               	bsf	___flmul@prod,0
  2231  072F                     l1763:	
  2232  072F  3001               	movlw	1
  2233  0730  00A8               	movwf	??___flmul
  2234  0731                     u2275:	
  2235  0731  1003               	clrc
  2236  0732  0DAE               	rlf	___flmul@grs,f
  2237  0733  0DAF               	rlf	___flmul@grs+1,f
  2238  0734  0DB0               	rlf	___flmul@grs+2,f
  2239  0735  0DB1               	rlf	___flmul@grs+3,f
  2240  0736  0BA8               	decfsz	??___flmul,f
  2241  0737  2F31               	goto	u2275
  2242  0738                     l1765:	
  2243  0738  30FF               	movlw	255
  2244  0739  07B8               	addwf	___flmul@temp,f
  2245  073A  1803               	skipnc
  2246  073B  0AB9               	incf	___flmul@temp+1,f
  2247  073C  30FF               	movlw	255
  2248  073D  07B9               	addwf	___flmul@temp+1,f
  2249  073E                     l1767:	
  2250  073E  1FB6               	btfss	___flmul@prod+2,7
  2251  073F  2F41               	goto	u2281
  2252  0740  2F42               	goto	u2280
  2253  0741                     u2281:	
  2254  0741  2F21               	goto	l1757
  2255  0742                     u2280:	
  2256  0742                     l1769:	
  2257  0742  01B2               	clrf	___flmul@aexp
  2258  0743                     l1771:	
  2259  0743  1FB1               	btfss	___flmul@grs+3,7
  2260  0744  2F46               	goto	u2291
  2261  0745  2F47               	goto	u2290
  2262  0746                     u2291:	
  2263  0746  2F63               	goto	l1779
  2264  0747                     u2290:	
  2265  0747                     l1773:	
  2266  0747  30FF               	movlw	255
  2267  0748  052E               	andwf	___flmul@grs,w
  2268  0749  00A8               	movwf	??___flmul
  2269  074A  30FF               	movlw	255
  2270  074B  052F               	andwf	___flmul@grs+1,w
  2271  074C  00A9               	movwf	??___flmul+1
  2272  074D  30FF               	movlw	255
  2273  074E  0530               	andwf	___flmul@grs+2,w
  2274  074F  00AA               	movwf	??___flmul+2
  2275  0750  307F               	movlw	127
  2276  0751  0531               	andwf	___flmul@grs+3,w
  2277  0752  00AB               	movwf	??___flmul+3
  2278  0753  082B               	movf	??___flmul+3,w
  2279  0754  042A               	iorwf	??___flmul+2,w
  2280  0755  0429               	iorwf	??___flmul+1,w
  2281  0756  0428               	iorwf	??___flmul,w
  2282  0757  1903               	skipnz
  2283  0758  2F5A               	goto	u2301
  2284  0759  2F5B               	goto	u2300
  2285  075A                     u2301:	
  2286  075A  2F5E               	goto	l586
  2287  075B                     u2300:	
  2288  075B                     l1775:	
  2289  075B  01B2               	clrf	___flmul@aexp
  2290  075C  0AB2               	incf	___flmul@aexp,f
  2291  075D  2F63               	goto	l1779
  2292  075E                     l586:	
  2293  075E  1C34               	btfss	___flmul@prod,0
  2294  075F  2F61               	goto	u2311
  2295  0760  2F62               	goto	u2310
  2296  0761                     u2311:	
  2297  0761  2F63               	goto	l1779
  2298  0762                     u2310:	
  2299  0762  2F5B               	goto	l1775
  2300  0763                     l1779:	
  2301  0763  0832               	movf	___flmul@aexp,w
  2302  0764  1903               	btfsc	3,2
  2303  0765  2F67               	goto	u2321
  2304  0766  2F68               	goto	u2320
  2305  0767                     u2321:	
  2306  0767  2F99               	goto	l1789
  2307  0768                     u2320:	
  2308  0768                     l1781:	
  2309  0768  3001               	movlw	1
  2310  0769  07B4               	addwf	___flmul@prod,f
  2311  076A  3000               	movlw	0
  2312  076B  1803               	skipnc
  2313  076C  3001               	movlw	1
  2314  076D  07B5               	addwf	___flmul@prod+1,f
  2315  076E  3000               	movlw	0
  2316  076F  1803               	skipnc
  2317  0770  3001               	movlw	1
  2318  0771  07B6               	addwf	___flmul@prod+2,f
  2319  0772  3000               	movlw	0
  2320  0773  1803               	skipnc
  2321  0774  3001               	movlw	1
  2322  0775  07B7               	addwf	___flmul@prod+3,f
  2323  0776                     l1783:	
  2324  0776  1C37               	btfss	___flmul@prod+3,0
  2325  0777  2F79               	goto	u2331
  2326  0778  2F7A               	goto	u2330
  2327  0779                     u2331:	
  2328  0779  2F99               	goto	l1789
  2329  077A                     u2330:	
  2330  077A                     l1785:	
  2331  077A  0834               	movf	___flmul@prod,w
  2332  077B  00A8               	movwf	??___flmul
  2333  077C  0835               	movf	___flmul@prod+1,w
  2334  077D  00A9               	movwf	??___flmul+1
  2335  077E  0836               	movf	___flmul@prod+2,w
  2336  077F  00AA               	movwf	??___flmul+2
  2337  0780  0837               	movf	___flmul@prod+3,w
  2338  0781  00AB               	movwf	??___flmul+3
  2339  0782  3001               	movlw	1
  2340  0783  00AC               	movwf	??___flmul+4
  2341  0784                     u2345:	
  2342  0784  0D2B               	rlf	??___flmul+3,w
  2343  0785  0CAB               	rrf	??___flmul+3,f
  2344  0786  0CAA               	rrf	??___flmul+2,f
  2345  0787  0CA9               	rrf	??___flmul+1,f
  2346  0788  0CA8               	rrf	??___flmul,f
  2347  0789                     u2340:	
  2348  0789  0BAC               	decfsz	??___flmul+4,f
  2349  078A  2F84               	goto	u2345
  2350  078B  082B               	movf	??___flmul+3,w
  2351  078C  00B7               	movwf	___flmul@prod+3
  2352  078D  082A               	movf	??___flmul+2,w
  2353  078E  00B6               	movwf	___flmul@prod+2
  2354  078F  0829               	movf	??___flmul+1,w
  2355  0790  00B5               	movwf	___flmul@prod+1
  2356  0791  0828               	movf	??___flmul,w
  2357  0792  00B4               	movwf	___flmul@prod
  2358  0793                     l1787:	
  2359  0793  3001               	movlw	1
  2360  0794  07B8               	addwf	___flmul@temp,f
  2361  0795  1803               	skipnc
  2362  0796  0AB9               	incf	___flmul@temp+1,f
  2363  0797  3000               	movlw	0
  2364  0798  07B9               	addwf	___flmul@temp+1,f
  2365  0799                     l1789:	
  2366  0799  0839               	movf	___flmul@temp+1,w
  2367  079A  3A80               	xorlw	128
  2368  079B  00FF               	movwf	btemp+1
  2369  079C  3080               	movlw	128
  2370  079D  027F               	subwf	btemp+1,w
  2371  079E  1D03               	skipz
  2372  079F  2FA2               	goto	u2355
  2373  07A0  30FF               	movlw	255
  2374  07A1  0238               	subwf	___flmul@temp,w
  2375  07A2                     u2355:	
  2376  07A2  1C03               	skipc
  2377  07A3  2FA5               	goto	u2351
  2378  07A4  2FA6               	goto	u2350
  2379  07A5                     u2351:	
  2380  07A5  2FB1               	goto	l1793
  2381  07A6                     u2350:	
  2382  07A6                     l1791:	
  2383  07A6  307F               	movlw	127
  2384  07A7  1283               	bcf	3,5	;RP0=0, select bank0
  2385  07A8  1303               	bcf	3,6	;RP1=0, select bank0
  2386  07A9  00B7               	movwf	___flmul@prod+3
  2387  07AA  3080               	movlw	128
  2388  07AB  00B6               	movwf	___flmul@prod+2
  2389  07AC  3000               	movlw	0
  2390  07AD  00B5               	movwf	___flmul@prod+1
  2391  07AE  3000               	movlw	0
  2392  07AF  00B4               	movwf	___flmul@prod
  2393  07B0  2FE6               	goto	l592
  2394  07B1                     l1793:	
  2395  07B1  1283               	bcf	3,5	;RP0=0, select bank0
  2396  07B2  1303               	bcf	3,6	;RP1=0, select bank0
  2397  07B3  0839               	movf	___flmul@temp+1,w
  2398  07B4  3A80               	xorlw	128
  2399  07B5  00FF               	movwf	btemp+1
  2400  07B6  3080               	movlw	128
  2401  07B7  027F               	subwf	btemp+1,w
  2402  07B8  1D03               	skipz
  2403  07B9  2FBC               	goto	u2365
  2404  07BA  3001               	movlw	1
  2405  07BB  0238               	subwf	___flmul@temp,w
  2406  07BC                     u2365:	
  2407  07BC  1803               	skipnc
  2408  07BD  2FBF               	goto	u2361
  2409  07BE  2FC0               	goto	u2360
  2410  07BF                     u2361:	
  2411  07BF  2FCC               	goto	l1799
  2412  07C0                     u2360:	
  2413  07C0                     l1795:	
  2414  07C0  3000               	movlw	0
  2415  07C1  1283               	bcf	3,5	;RP0=0, select bank0
  2416  07C2  1303               	bcf	3,6	;RP1=0, select bank0
  2417  07C3  00B7               	movwf	___flmul@prod+3
  2418  07C4  3000               	movlw	0
  2419  07C5  00B6               	movwf	___flmul@prod+2
  2420  07C6  3000               	movlw	0
  2421  07C7  00B5               	movwf	___flmul@prod+1
  2422  07C8  3000               	movlw	0
  2423  07C9  00B4               	movwf	___flmul@prod
  2424  07CA                     l1797:	
  2425  07CA  01AD               	clrf	___flmul@sign
  2426  07CB  2FE6               	goto	l592
  2427  07CC                     l1799:	
  2428  07CC  1283               	bcf	3,5	;RP0=0, select bank0
  2429  07CD  1303               	bcf	3,6	;RP1=0, select bank0
  2430  07CE  0838               	movf	___flmul@temp,w
  2431  07CF  00A8               	movwf	??___flmul
  2432  07D0  0828               	movf	??___flmul,w
  2433  07D1  00B3               	movwf	___flmul@bexp
  2434  07D2  30FF               	movlw	255
  2435  07D3  05B4               	andwf	___flmul@prod,f
  2436  07D4  30FF               	movlw	255
  2437  07D5  05B5               	andwf	___flmul@prod+1,f
  2438  07D6  307F               	movlw	127
  2439  07D7  05B6               	andwf	___flmul@prod+2,f
  2440  07D8  3000               	movlw	0
  2441  07D9  05B7               	andwf	___flmul@prod+3,f
  2442  07DA                     l1801:	
  2443  07DA  1C33               	btfss	___flmul@bexp,0
  2444  07DB  2FDD               	goto	u2371
  2445  07DC  2FDE               	goto	u2370
  2446  07DD                     u2371:	
  2447  07DD  2FDF               	goto	l1805
  2448  07DE                     u2370:	
  2449  07DE                     l1803:	
  2450  07DE  17B6               	bsf	___flmul@prod+2,7
  2451  07DF                     l1805:	
  2452  07DF  0833               	movf	___flmul@bexp,w
  2453  07E0  00A8               	movwf	??___flmul
  2454  07E1  1003               	clrc
  2455  07E2  0C28               	rrf	??___flmul,w
  2456  07E3  00A9               	movwf	??___flmul+1
  2457  07E4  0829               	movf	??___flmul+1,w
  2458  07E5  00B7               	movwf	___flmul@prod+3
  2459  07E6                     l592:	
  2460  07E6  082D               	movf	___flmul@sign,w
  2461  07E7  00A8               	movwf	??___flmul
  2462  07E8  0828               	movf	??___flmul,w
  2463  07E9  04B7               	iorwf	___flmul@prod+3,f
  2464  07EA                     l1807:	
  2465  07EA  0837               	movf	___flmul@prod+3,w
  2466  07EB  00A3               	movwf	?___flmul+3
  2467  07EC  0836               	movf	___flmul@prod+2,w
  2468  07ED  00A2               	movwf	?___flmul+2
  2469  07EE  0835               	movf	___flmul@prod+1,w
  2470  07EF  00A1               	movwf	?___flmul+1
  2471  07F0  0834               	movf	___flmul@prod,w
  2472  07F1  00A0               	movwf	?___flmul
  2473  07F2                     l580:	
  2474  07F2  0008               	return
  2475  07F3                     __end_of___flmul:	
  2476                           
  2477                           	psect	text4
  2478  0005                     __ptext4:	
  2479 ;; *************** function __Umul8_16 *****************
  2480 ;; Defined at:
  2481 ;;		line 4 in file "C:\Program Files (x86)\Microchip\xc8\v2.10\pic\sources\c90\common\Umul8_16.c"
  2482 ;; Parameters:    Size  Location     Type
  2483 ;;  multiplier      1    wreg     unsigned char 
  2484 ;;  multiplicand    1    0[COMMON] unsigned char 
  2485 ;; Auto vars:     Size  Location     Type
  2486 ;;  multiplier      1    8[COMMON] unsigned char 
  2487 ;;  word_mpld       2    6[COMMON] unsigned int 
  2488 ;;  product         2    4[COMMON] unsigned int 
  2489 ;; Return value:  Size  Location     Type
  2490 ;;                  2    0[COMMON] unsigned int 
  2491 ;; Registers used:
  2492 ;;		wreg, status,2, status,0
  2493 ;; Tracked objects:
  2494 ;;		On entry : 0/0
  2495 ;;		On exit  : 0/0
  2496 ;;		Unchanged: 0/0
  2497 ;; Data sizes:     COMMON   BANK0   BANK1   BANK3   BANK2
  2498 ;;      Params:         2       0       0       0       0
  2499 ;;      Locals:         5       0       0       0       0
  2500 ;;      Temps:          2       0       0       0       0
  2501 ;;      Totals:         9       0       0       0       0
  2502 ;;Total ram usage:        9 bytes
  2503 ;; Hardware stack levels used:    1
  2504 ;; This function calls:
  2505 ;;		Nothing
  2506 ;; This function is called by:
  2507 ;;		___flmul
  2508 ;; This function uses a non-reentrant model
  2509 ;;
  2510                           
  2511                           
  2512                           ;psect for function __Umul8_16
  2513  0005                     __Umul8_16:	
  2514                           
  2515                           ;incstack = 0
  2516                           ; Regs used in __Umul8_16: [wreg+status,2+status,0]
  2517                           ;__Umul8_16@multiplier stored from wreg
  2518  0005  00F8               	movwf	__Umul8_16@multiplier
  2519  0006                     l1357:	
  2520  0006  01F4               	clrf	__Umul8_16@product
  2521  0007  01F5               	clrf	__Umul8_16@product+1
  2522  0008                     l1359:	
  2523  0008  0870               	movf	__Umul8_16@multiplicand,w
  2524  0009  00F2               	movwf	??__Umul8_16
  2525  000A  01F3               	clrf	??__Umul8_16+1
  2526  000B  0872               	movf	??__Umul8_16,w
  2527  000C  00F6               	movwf	__Umul8_16@word_mpld
  2528  000D  0873               	movf	??__Umul8_16+1,w
  2529  000E  00F7               	movwf	__Umul8_16@word_mpld+1
  2530  000F                     l1361:	
  2531  000F  1C78               	btfss	__Umul8_16@multiplier,0
  2532  0010  2812               	goto	u1351
  2533  0011  2813               	goto	u1350
  2534  0012                     u1351:	
  2535  0012  2819               	goto	l637
  2536  0013                     u1350:	
  2537  0013                     l1363:	
  2538  0013  0876               	movf	__Umul8_16@word_mpld,w
  2539  0014  07F4               	addwf	__Umul8_16@product,f
  2540  0015  1803               	skipnc
  2541  0016  0AF5               	incf	__Umul8_16@product+1,f
  2542  0017  0877               	movf	__Umul8_16@word_mpld+1,w
  2543  0018  07F5               	addwf	__Umul8_16@product+1,f
  2544  0019                     l637:	
  2545  0019  3001               	movlw	1
  2546  001A                     u1365:	
  2547  001A  1003               	clrc
  2548  001B  0DF6               	rlf	__Umul8_16@word_mpld,f
  2549  001C  0DF7               	rlf	__Umul8_16@word_mpld+1,f
  2550  001D  3EFF               	addlw	-1
  2551  001E  1D03               	skipz
  2552  001F  281A               	goto	u1365
  2553  0020  1003               	clrc
  2554  0021  0CF8               	rrf	__Umul8_16@multiplier,f
  2555  0022                     l1365:	
  2556  0022  0878               	movf	__Umul8_16@multiplier,w
  2557  0023  1D03               	btfss	3,2
  2558  0024  2826               	goto	u1371
  2559  0025  2827               	goto	u1370
  2560  0026                     u1371:	
  2561  0026  280F               	goto	l1361
  2562  0027                     u1370:	
  2563  0027                     l1367:	
  2564  0027  0875               	movf	__Umul8_16@product+1,w
  2565  0028  00F1               	movwf	?__Umul8_16+1
  2566  0029  0874               	movf	__Umul8_16@product,w
  2567  002A  00F0               	movwf	?__Umul8_16
  2568  002B                     l639:	
  2569  002B  0008               	return
  2570  002C                     __end_of__Umul8_16:	
  2571                           
  2572                           	psect	text5
  2573  02B5                     __ptext5:	
  2574 ;; *************** function ___fldiv *****************
  2575 ;; Defined at:
  2576 ;;		line 8 in file "C:\Program Files (x86)\Microchip\xc8\v2.10\pic\sources\c90\common\sprcdiv.c"
  2577 ;; Parameters:    Size  Location     Type
  2578 ;;  a               4   26[BANK0 ] unsigned int 
  2579 ;;  b               4   30[BANK0 ] unsigned int 
  2580 ;; Auto vars:     Size  Location     Type
  2581 ;;  grs             4   46[BANK0 ] unsigned long 
  2582 ;;  rem             4   39[BANK0 ] unsigned long 
  2583 ;;  new_exp         2   44[BANK0 ] int 
  2584 ;;  aexp            1   51[BANK0 ] unsigned char 
  2585 ;;  bexp            1   50[BANK0 ] unsigned char 
  2586 ;;  sign            1   43[BANK0 ] unsigned char 
  2587 ;; Return value:  Size  Location     Type
  2588 ;;                  4   26[BANK0 ] unsigned char 
  2589 ;; Registers used:
  2590 ;;		wreg, status,2, status,0, btemp+1
  2591 ;; Tracked objects:
  2592 ;;		On entry : 0/0
  2593 ;;		On exit  : 0/0
  2594 ;;		Unchanged: 0/0
  2595 ;; Data sizes:     COMMON   BANK0   BANK1   BANK3   BANK2
  2596 ;;      Params:         0       8       0       0       0
  2597 ;;      Locals:         0      13       0       0       0
  2598 ;;      Temps:          0       5       0       0       0
  2599 ;;      Totals:         0      26       0       0       0
  2600 ;;Total ram usage:       26 bytes
  2601 ;; Hardware stack levels used:    1
  2602 ;; This function calls:
  2603 ;;		Nothing
  2604 ;; This function is called by:
  2605 ;;		_main
  2606 ;; This function uses a non-reentrant model
  2607 ;;
  2608                           
  2609                           
  2610                           ;psect for function ___fldiv
  2611  02B5                     ___fldiv:	
  2612  02B5                     l1529:	
  2613                           ;incstack = 0
  2614                           ; Regs used in ___fldiv: [wreg+status,2+status,0+btemp+1]
  2615                           
  2616  02B5  1283               	bcf	3,5	;RP0=0, select bank0
  2617  02B6  1303               	bcf	3,6	;RP1=0, select bank0
  2618  02B7  0841               	movf	___fldiv@b+3,w
  2619  02B8  3980               	andlw	128
  2620  02B9  00C2               	movwf	??___fldiv
  2621  02BA  0842               	movf	??___fldiv,w
  2622  02BB  00CB               	movwf	___fldiv@sign
  2623  02BC                     l1531:	
  2624  02BC  0841               	movf	___fldiv@b+3,w
  2625  02BD  00C2               	movwf	??___fldiv
  2626  02BE  0742               	addwf	??___fldiv,w
  2627  02BF  00C3               	movwf	??___fldiv+1
  2628  02C0  0843               	movf	??___fldiv+1,w
  2629  02C1  00D2               	movwf	___fldiv@bexp
  2630  02C2                     l1533:	
  2631  02C2  1FC0               	btfss	___fldiv@b+2,7
  2632  02C3  2AC5               	goto	u1721
  2633  02C4  2AC6               	goto	u1720
  2634  02C5                     u1721:	
  2635  02C5  2AC7               	goto	l1537
  2636  02C6                     u1720:	
  2637  02C6                     l1535:	
  2638  02C6  1452               	bsf	___fldiv@bexp,0
  2639  02C7                     l1537:	
  2640  02C7  0852               	movf	___fldiv@bexp,w
  2641  02C8  1903               	btfsc	3,2
  2642  02C9  2ACB               	goto	u1731
  2643  02CA  2ACC               	goto	u1730
  2644  02CB                     u1731:	
  2645  02CB  2ADC               	goto	l1547
  2646  02CC                     u1730:	
  2647  02CC                     l1539:	
  2648  02CC  0A52               	incf	___fldiv@bexp,w
  2649  02CD  1D03               	btfss	3,2
  2650  02CE  2AD0               	goto	u1741
  2651  02CF  2AD1               	goto	u1740
  2652  02D0                     u1741:	
  2653  02D0  2AD9               	goto	l1543
  2654  02D1                     u1740:	
  2655  02D1                     l1541:	
  2656  02D1  3000               	movlw	0
  2657  02D2  00C1               	movwf	___fldiv@b+3
  2658  02D3  3000               	movlw	0
  2659  02D4  00C0               	movwf	___fldiv@b+2
  2660  02D5  3000               	movlw	0
  2661  02D6  00BF               	movwf	___fldiv@b+1
  2662  02D7  3000               	movlw	0
  2663  02D8  00BE               	movwf	___fldiv@b
  2664  02D9                     l1543:	
  2665  02D9  17C0               	bsf	___fldiv@b+2,7
  2666  02DA                     l1545:	
  2667  02DA  01C1               	clrf	___fldiv@b+3
  2668  02DB  2AE4               	goto	l1549
  2669  02DC                     l1547:	
  2670  02DC  3000               	movlw	0
  2671  02DD  00C1               	movwf	___fldiv@b+3
  2672  02DE  3000               	movlw	0
  2673  02DF  00C0               	movwf	___fldiv@b+2
  2674  02E0  3000               	movlw	0
  2675  02E1  00BF               	movwf	___fldiv@b+1
  2676  02E2  3000               	movlw	0
  2677  02E3  00BE               	movwf	___fldiv@b
  2678  02E4                     l1549:	
  2679  02E4  083D               	movf	___fldiv@a+3,w
  2680  02E5  3980               	andlw	128
  2681  02E6  00C2               	movwf	??___fldiv
  2682  02E7  0842               	movf	??___fldiv,w
  2683  02E8  06CB               	xorwf	___fldiv@sign,f
  2684  02E9                     l1551:	
  2685  02E9  083D               	movf	___fldiv@a+3,w
  2686  02EA  00C2               	movwf	??___fldiv
  2687  02EB  0742               	addwf	??___fldiv,w
  2688  02EC  00C3               	movwf	??___fldiv+1
  2689  02ED  0843               	movf	??___fldiv+1,w
  2690  02EE  00D3               	movwf	___fldiv@aexp
  2691  02EF                     l1553:	
  2692  02EF  1FBC               	btfss	___fldiv@a+2,7
  2693  02F0  2AF2               	goto	u1751
  2694  02F1  2AF3               	goto	u1750
  2695  02F2                     u1751:	
  2696  02F2  2AF4               	goto	l1557
  2697  02F3                     u1750:	
  2698  02F3                     l1555:	
  2699  02F3  1453               	bsf	___fldiv@aexp,0
  2700  02F4                     l1557:	
  2701  02F4  0853               	movf	___fldiv@aexp,w
  2702  02F5  1903               	btfsc	3,2
  2703  02F6  2AF8               	goto	u1761
  2704  02F7  2AF9               	goto	u1760
  2705  02F8                     u1761:	
  2706  02F8  2B09               	goto	l1567
  2707  02F9                     u1760:	
  2708  02F9                     l1559:	
  2709  02F9  0A53               	incf	___fldiv@aexp,w
  2710  02FA  1D03               	btfss	3,2
  2711  02FB  2AFD               	goto	u1771
  2712  02FC  2AFE               	goto	u1770
  2713  02FD                     u1771:	
  2714  02FD  2B06               	goto	l1563
  2715  02FE                     u1770:	
  2716  02FE                     l1561:	
  2717  02FE  3000               	movlw	0
  2718  02FF  00BD               	movwf	___fldiv@a+3
  2719  0300  3000               	movlw	0
  2720  0301  00BC               	movwf	___fldiv@a+2
  2721  0302  3000               	movlw	0
  2722  0303  00BB               	movwf	___fldiv@a+1
  2723  0304  3000               	movlw	0
  2724  0305  00BA               	movwf	___fldiv@a
  2725  0306                     l1563:	
  2726  0306  17BC               	bsf	___fldiv@a+2,7
  2727  0307                     l1565:	
  2728  0307  01BD               	clrf	___fldiv@a+3
  2729  0308  2B11               	goto	l540
  2730  0309                     l1567:	
  2731  0309  3000               	movlw	0
  2732  030A  00BD               	movwf	___fldiv@a+3
  2733  030B  3000               	movlw	0
  2734  030C  00BC               	movwf	___fldiv@a+2
  2735  030D  3000               	movlw	0
  2736  030E  00BB               	movwf	___fldiv@a+1
  2737  030F  3000               	movlw	0
  2738  0310  00BA               	movwf	___fldiv@a
  2739  0311                     l540:	
  2740  0311  083D               	movf	___fldiv@a+3,w
  2741  0312  043C               	iorwf	___fldiv@a+2,w
  2742  0313  043B               	iorwf	___fldiv@a+1,w
  2743  0314  043A               	iorwf	___fldiv@a,w
  2744  0315  1D03               	skipz
  2745  0316  2B18               	goto	u1781
  2746  0317  2B19               	goto	u1780
  2747  0318                     u1781:	
  2748  0318  2B32               	goto	l1577
  2749  0319                     u1780:	
  2750  0319                     l1569:	
  2751  0319  3000               	movlw	0
  2752  031A  00C1               	movwf	___fldiv@b+3
  2753  031B  3000               	movlw	0
  2754  031C  00C0               	movwf	___fldiv@b+2
  2755  031D  3000               	movlw	0
  2756  031E  00BF               	movwf	___fldiv@b+1
  2757  031F  3000               	movlw	0
  2758  0320  00BE               	movwf	___fldiv@b
  2759  0321  3080               	movlw	128
  2760  0322  04C0               	iorwf	___fldiv@b+2,f
  2761  0323  307F               	movlw	127
  2762  0324  04C1               	iorwf	___fldiv@b+3,f
  2763  0325                     l1571:	
  2764  0325  084B               	movf	___fldiv@sign,w
  2765  0326  00C2               	movwf	??___fldiv
  2766  0327  0842               	movf	??___fldiv,w
  2767  0328  04C1               	iorwf	___fldiv@b+3,f
  2768  0329                     l1573:	
  2769  0329  0841               	movf	___fldiv@b+3,w
  2770  032A  00BD               	movwf	?___fldiv+3
  2771  032B  0840               	movf	___fldiv@b+2,w
  2772  032C  00BC               	movwf	?___fldiv+2
  2773  032D  083F               	movf	___fldiv@b+1,w
  2774  032E  00BB               	movwf	?___fldiv+1
  2775  032F  083E               	movf	___fldiv@b,w
  2776  0330  00BA               	movwf	?___fldiv
  2777  0331  2C91               	goto	l542
  2778  0332                     l1577:	
  2779  0332  0852               	movf	___fldiv@bexp,w
  2780  0333  1D03               	btfss	3,2
  2781  0334  2B36               	goto	u1791
  2782  0335  2B37               	goto	u1790
  2783  0336                     u1791:	
  2784  0336  2B40               	goto	l1583
  2785  0337                     u1790:	
  2786  0337                     l1579:	
  2787  0337  3000               	movlw	0
  2788  0338  00BD               	movwf	?___fldiv+3
  2789  0339  3000               	movlw	0
  2790  033A  00BC               	movwf	?___fldiv+2
  2791  033B  3000               	movlw	0
  2792  033C  00BB               	movwf	?___fldiv+1
  2793  033D  3000               	movlw	0
  2794  033E  00BA               	movwf	?___fldiv
  2795  033F  2C91               	goto	l542
  2796  0340                     l1583:	
  2797  0340  0852               	movf	___fldiv@bexp,w
  2798  0341  00C2               	movwf	??___fldiv
  2799  0342  01C3               	clrf	??___fldiv+1
  2800  0343  0843               	movf	??___fldiv+1,w
  2801  0344  00C5               	movwf	??___fldiv+3
  2802  0345  0853               	movf	___fldiv@aexp,w
  2803  0346  0242               	subwf	??___fldiv,w
  2804  0347  00C4               	movwf	??___fldiv+2
  2805  0348  1C03               	skipc
  2806  0349  03C5               	decf	??___fldiv+3,f
  2807  034A  0844               	movf	??___fldiv+2,w
  2808  034B  3E7F               	addlw	127
  2809  034C  00CC               	movwf	___fldiv@new_exp
  2810  034D  0845               	movf	??___fldiv+3,w
  2811  034E  1803               	skipnc
  2812  034F  3E01               	addlw	1
  2813  0350  3E00               	addlw	0
  2814  0351  00CD               	movwf	___fldiv@new_exp+1
  2815  0352                     l1585:	
  2816  0352  0841               	movf	___fldiv@b+3,w
  2817  0353  00CA               	movwf	___fldiv@rem+3
  2818  0354  0840               	movf	___fldiv@b+2,w
  2819  0355  00C9               	movwf	___fldiv@rem+2
  2820  0356  083F               	movf	___fldiv@b+1,w
  2821  0357  00C8               	movwf	___fldiv@rem+1
  2822  0358  083E               	movf	___fldiv@b,w
  2823  0359  00C7               	movwf	___fldiv@rem
  2824  035A                     l1587:	
  2825  035A  3000               	movlw	0
  2826  035B  00C1               	movwf	___fldiv@b+3
  2827  035C  3000               	movlw	0
  2828  035D  00C0               	movwf	___fldiv@b+2
  2829  035E  3000               	movlw	0
  2830  035F  00BF               	movwf	___fldiv@b+1
  2831  0360  3000               	movlw	0
  2832  0361  00BE               	movwf	___fldiv@b
  2833  0362                     l1589:	
  2834  0362  3000               	movlw	0
  2835  0363  00D1               	movwf	___fldiv@grs+3
  2836  0364  3000               	movlw	0
  2837  0365  00D0               	movwf	___fldiv@grs+2
  2838  0366  3000               	movlw	0
  2839  0367  00CF               	movwf	___fldiv@grs+1
  2840  0368  3000               	movlw	0
  2841  0369  00CE               	movwf	___fldiv@grs
  2842  036A                     l1591:	
  2843  036A  01D3               	clrf	___fldiv@aexp
  2844  036B  2BB6               	goto	l1611
  2845  036C                     l1593:	
  2846  036C  0853               	movf	___fldiv@aexp,w
  2847  036D  1903               	btfsc	3,2
  2848  036E  2B70               	goto	u1801
  2849  036F  2B71               	goto	u1800
  2850  0370                     u1801:	
  2851  0370  2B91               	goto	l1603
  2852  0371                     u1800:	
  2853  0371                     l1595:	
  2854  0371  3001               	movlw	1
  2855  0372  00C2               	movwf	??___fldiv
  2856  0373                     u1815:	
  2857  0373  1003               	clrc
  2858  0374  0DC7               	rlf	___fldiv@rem,f
  2859  0375  0DC8               	rlf	___fldiv@rem+1,f
  2860  0376  0DC9               	rlf	___fldiv@rem+2,f
  2861  0377  0DCA               	rlf	___fldiv@rem+3,f
  2862  0378  0BC2               	decfsz	??___fldiv,f
  2863  0379  2B73               	goto	u1815
  2864  037A  3001               	movlw	1
  2865  037B  00C2               	movwf	??___fldiv
  2866  037C                     u1825:	
  2867  037C  1003               	clrc
  2868  037D  0DBE               	rlf	___fldiv@b,f
  2869  037E  0DBF               	rlf	___fldiv@b+1,f
  2870  037F  0DC0               	rlf	___fldiv@b+2,f
  2871  0380  0DC1               	rlf	___fldiv@b+3,f
  2872  0381  0BC2               	decfsz	??___fldiv,f
  2873  0382  2B7C               	goto	u1825
  2874  0383                     l1597:	
  2875  0383  1FD1               	btfss	___fldiv@grs+3,7
  2876  0384  2B86               	goto	u1831
  2877  0385  2B87               	goto	u1830
  2878  0386                     u1831:	
  2879  0386  2B88               	goto	l1601
  2880  0387                     u1830:	
  2881  0387                     l1599:	
  2882  0387  143E               	bsf	___fldiv@b,0
  2883  0388                     l1601:	
  2884  0388  3001               	movlw	1
  2885  0389  00C2               	movwf	??___fldiv
  2886  038A                     u1845:	
  2887  038A  1003               	clrc
  2888  038B  0DCE               	rlf	___fldiv@grs,f
  2889  038C  0DCF               	rlf	___fldiv@grs+1,f
  2890  038D  0DD0               	rlf	___fldiv@grs+2,f
  2891  038E  0DD1               	rlf	___fldiv@grs+3,f
  2892  038F  0BC2               	decfsz	??___fldiv,f
  2893  0390  2B8A               	goto	u1845
  2894  0391                     l1603:	
  2895  0391  083D               	movf	___fldiv@a+3,w
  2896  0392  024A               	subwf	___fldiv@rem+3,w
  2897  0393  1D03               	skipz
  2898  0394  2B9F               	goto	u1855
  2899  0395  083C               	movf	___fldiv@a+2,w
  2900  0396  0249               	subwf	___fldiv@rem+2,w
  2901  0397  1D03               	skipz
  2902  0398  2B9F               	goto	u1855
  2903  0399  083B               	movf	___fldiv@a+1,w
  2904  039A  0248               	subwf	___fldiv@rem+1,w
  2905  039B  1D03               	skipz
  2906  039C  2B9F               	goto	u1855
  2907  039D  083A               	movf	___fldiv@a,w
  2908  039E  0247               	subwf	___fldiv@rem,w
  2909  039F                     u1855:	
  2910  039F  1C03               	skipc
  2911  03A0  2BA2               	goto	u1851
  2912  03A1  2BA3               	goto	u1850
  2913  03A2                     u1851:	
  2914  03A2  2BB2               	goto	l1609
  2915  03A3                     u1850:	
  2916  03A3                     l1605:	
  2917  03A3  1751               	bsf	___fldiv@grs+3,6
  2918  03A4                     l1607:	
  2919  03A4  083A               	movf	___fldiv@a,w
  2920  03A5  02C7               	subwf	___fldiv@rem,f
  2921  03A6  083B               	movf	___fldiv@a+1,w
  2922  03A7  1C03               	skipc
  2923  03A8  0F3B               	incfsz	___fldiv@a+1,w
  2924  03A9  02C8               	subwf	___fldiv@rem+1,f
  2925  03AA  083C               	movf	___fldiv@a+2,w
  2926  03AB  1C03               	skipc
  2927  03AC  0F3C               	incfsz	___fldiv@a+2,w
  2928  03AD  02C9               	subwf	___fldiv@rem+2,f
  2929  03AE  083D               	movf	___fldiv@a+3,w
  2930  03AF  1C03               	skipc
  2931  03B0  0F3D               	incfsz	___fldiv@a+3,w
  2932  03B1  02CA               	subwf	___fldiv@rem+3,f
  2933  03B2                     l1609:	
  2934  03B2  3001               	movlw	1
  2935  03B3  00C2               	movwf	??___fldiv
  2936  03B4  0842               	movf	??___fldiv,w
  2937  03B5  07D3               	addwf	___fldiv@aexp,f
  2938  03B6                     l1611:	
  2939  03B6  301A               	movlw	26
  2940  03B7  0253               	subwf	___fldiv@aexp,w
  2941  03B8  1C03               	skipc
  2942  03B9  2BBB               	goto	u1861
  2943  03BA  2BBC               	goto	u1860
  2944  03BB                     u1861:	
  2945  03BB  2B6C               	goto	l1593
  2946  03BC                     u1860:	
  2947  03BC                     l1613:	
  2948  03BC  084A               	movf	___fldiv@rem+3,w
  2949  03BD  0449               	iorwf	___fldiv@rem+2,w
  2950  03BE  0448               	iorwf	___fldiv@rem+1,w
  2951  03BF  0447               	iorwf	___fldiv@rem,w
  2952  03C0  1903               	skipnz
  2953  03C1  2BC3               	goto	u1871
  2954  03C2  2BC4               	goto	u1870
  2955  03C3                     u1871:	
  2956  03C3  2BE3               	goto	l1627
  2957  03C4                     u1870:	
  2958  03C4                     l1615:	
  2959  03C4  144E               	bsf	___fldiv@grs,0
  2960  03C5  2BE3               	goto	l1627
  2961  03C6                     l1617:	
  2962  03C6  3001               	movlw	1
  2963  03C7  00C2               	movwf	??___fldiv
  2964  03C8                     u1885:	
  2965  03C8  1003               	clrc
  2966  03C9  0DBE               	rlf	___fldiv@b,f
  2967  03CA  0DBF               	rlf	___fldiv@b+1,f
  2968  03CB  0DC0               	rlf	___fldiv@b+2,f
  2969  03CC  0DC1               	rlf	___fldiv@b+3,f
  2970  03CD  0BC2               	decfsz	??___fldiv,f
  2971  03CE  2BC8               	goto	u1885
  2972  03CF                     l1619:	
  2973  03CF  1FD1               	btfss	___fldiv@grs+3,7
  2974  03D0  2BD2               	goto	u1891
  2975  03D1  2BD3               	goto	u1890
  2976  03D2                     u1891:	
  2977  03D2  2BD4               	goto	l1623
  2978  03D3                     u1890:	
  2979  03D3                     l1621:	
  2980  03D3  143E               	bsf	___fldiv@b,0
  2981  03D4                     l1623:	
  2982  03D4  3001               	movlw	1
  2983  03D5  00C2               	movwf	??___fldiv
  2984  03D6                     u1905:	
  2985  03D6  1003               	clrc
  2986  03D7  0DCE               	rlf	___fldiv@grs,f
  2987  03D8  0DCF               	rlf	___fldiv@grs+1,f
  2988  03D9  0DD0               	rlf	___fldiv@grs+2,f
  2989  03DA  0DD1               	rlf	___fldiv@grs+3,f
  2990  03DB  0BC2               	decfsz	??___fldiv,f
  2991  03DC  2BD6               	goto	u1905
  2992  03DD                     l1625:	
  2993  03DD  30FF               	movlw	255
  2994  03DE  07CC               	addwf	___fldiv@new_exp,f
  2995  03DF  1803               	skipnc
  2996  03E0  0ACD               	incf	___fldiv@new_exp+1,f
  2997  03E1  30FF               	movlw	255
  2998  03E2  07CD               	addwf	___fldiv@new_exp+1,f
  2999  03E3                     l1627:	
  3000  03E3  1FC0               	btfss	___fldiv@b+2,7
  3001  03E4  2BE6               	goto	u1911
  3002  03E5  2BE7               	goto	u1910
  3003  03E6                     u1911:	
  3004  03E6  2BC6               	goto	l1617
  3005  03E7                     u1910:	
  3006  03E7                     l1629:	
  3007  03E7  01D3               	clrf	___fldiv@aexp
  3008  03E8                     l1631:	
  3009  03E8  1FD1               	btfss	___fldiv@grs+3,7
  3010  03E9  2BEB               	goto	u1921
  3011  03EA  2BEC               	goto	u1920
  3012  03EB                     u1921:	
  3013  03EB  2C08               	goto	l1639
  3014  03EC                     u1920:	
  3015  03EC                     l1633:	
  3016  03EC  30FF               	movlw	255
  3017  03ED  054E               	andwf	___fldiv@grs,w
  3018  03EE  00C2               	movwf	??___fldiv
  3019  03EF  30FF               	movlw	255
  3020  03F0  054F               	andwf	___fldiv@grs+1,w
  3021  03F1  00C3               	movwf	??___fldiv+1
  3022  03F2  30FF               	movlw	255
  3023  03F3  0550               	andwf	___fldiv@grs+2,w
  3024  03F4  00C4               	movwf	??___fldiv+2
  3025  03F5  307F               	movlw	127
  3026  03F6  0551               	andwf	___fldiv@grs+3,w
  3027  03F7  00C5               	movwf	??___fldiv+3
  3028  03F8  0845               	movf	??___fldiv+3,w
  3029  03F9  0444               	iorwf	??___fldiv+2,w
  3030  03FA  0443               	iorwf	??___fldiv+1,w
  3031  03FB  0442               	iorwf	??___fldiv,w
  3032  03FC  1903               	skipnz
  3033  03FD  2BFF               	goto	u1931
  3034  03FE  2C00               	goto	u1930
  3035  03FF                     u1931:	
  3036  03FF  2C03               	goto	l556
  3037  0400                     u1930:	
  3038  0400                     l1635:	
  3039  0400  01D3               	clrf	___fldiv@aexp
  3040  0401  0AD3               	incf	___fldiv@aexp,f
  3041  0402  2C08               	goto	l1639
  3042  0403                     l556:	
  3043  0403  1C3E               	btfss	___fldiv@b,0
  3044  0404  2C06               	goto	u1941
  3045  0405  2C07               	goto	u1940
  3046  0406                     u1941:	
  3047  0406  2C08               	goto	l1639
  3048  0407                     u1940:	
  3049  0407  2C00               	goto	l1635
  3050  0408                     l1639:	
  3051  0408  0853               	movf	___fldiv@aexp,w
  3052  0409  1903               	btfsc	3,2
  3053  040A  2C0C               	goto	u1951
  3054  040B  2C0D               	goto	u1950
  3055  040C                     u1951:	
  3056  040C  2C3E               	goto	l1649
  3057  040D                     u1950:	
  3058  040D                     l1641:	
  3059  040D  3001               	movlw	1
  3060  040E  07BE               	addwf	___fldiv@b,f
  3061  040F  3000               	movlw	0
  3062  0410  1803               	skipnc
  3063  0411  3001               	movlw	1
  3064  0412  07BF               	addwf	___fldiv@b+1,f
  3065  0413  3000               	movlw	0
  3066  0414  1803               	skipnc
  3067  0415  3001               	movlw	1
  3068  0416  07C0               	addwf	___fldiv@b+2,f
  3069  0417  3000               	movlw	0
  3070  0418  1803               	skipnc
  3071  0419  3001               	movlw	1
  3072  041A  07C1               	addwf	___fldiv@b+3,f
  3073  041B                     l1643:	
  3074  041B  1C41               	btfss	___fldiv@b+3,0
  3075  041C  2C1E               	goto	u1961
  3076  041D  2C1F               	goto	u1960
  3077  041E                     u1961:	
  3078  041E  2C3E               	goto	l1649
  3079  041F                     u1960:	
  3080  041F                     l1645:	
  3081  041F  083E               	movf	___fldiv@b,w
  3082  0420  00C2               	movwf	??___fldiv
  3083  0421  083F               	movf	___fldiv@b+1,w
  3084  0422  00C3               	movwf	??___fldiv+1
  3085  0423  0840               	movf	___fldiv@b+2,w
  3086  0424  00C4               	movwf	??___fldiv+2
  3087  0425  0841               	movf	___fldiv@b+3,w
  3088  0426  00C5               	movwf	??___fldiv+3
  3089  0427  3001               	movlw	1
  3090  0428  00C6               	movwf	??___fldiv+4
  3091  0429                     u1975:	
  3092  0429  0D45               	rlf	??___fldiv+3,w
  3093  042A  0CC5               	rrf	??___fldiv+3,f
  3094  042B  0CC4               	rrf	??___fldiv+2,f
  3095  042C  0CC3               	rrf	??___fldiv+1,f
  3096  042D  0CC2               	rrf	??___fldiv,f
  3097  042E                     u1970:	
  3098  042E  0BC6               	decfsz	??___fldiv+4,f
  3099  042F  2C29               	goto	u1975
  3100  0430  0845               	movf	??___fldiv+3,w
  3101  0431  00C1               	movwf	___fldiv@b+3
  3102  0432  0844               	movf	??___fldiv+2,w
  3103  0433  00C0               	movwf	___fldiv@b+2
  3104  0434  0843               	movf	??___fldiv+1,w
  3105  0435  00BF               	movwf	___fldiv@b+1
  3106  0436  0842               	movf	??___fldiv,w
  3107  0437  00BE               	movwf	___fldiv@b
  3108  0438                     l1647:	
  3109  0438  3001               	movlw	1
  3110  0439  07CC               	addwf	___fldiv@new_exp,f
  3111  043A  1803               	skipnc
  3112  043B  0ACD               	incf	___fldiv@new_exp+1,f
  3113  043C  3000               	movlw	0
  3114  043D  07CD               	addwf	___fldiv@new_exp+1,f
  3115  043E                     l1649:	
  3116  043E  084D               	movf	___fldiv@new_exp+1,w
  3117  043F  3A80               	xorlw	128
  3118  0440  00FF               	movwf	btemp+1
  3119  0441  3080               	movlw	128
  3120  0442  027F               	subwf	btemp+1,w
  3121  0443  1D03               	skipz
  3122  0444  2C47               	goto	u1985
  3123  0445  30FF               	movlw	255
  3124  0446  024C               	subwf	___fldiv@new_exp,w
  3125  0447                     u1985:	
  3126  0447  1C03               	skipc
  3127  0448  2C4A               	goto	u1981
  3128  0449  2C4B               	goto	u1980
  3129  044A                     u1981:	
  3130  044A  2C59               	goto	l1653
  3131  044B                     u1980:	
  3132  044B                     l1651:	
  3133  044B  30FF               	movlw	255
  3134  044C  1283               	bcf	3,5	;RP0=0, select bank0
  3135  044D  1303               	bcf	3,6	;RP1=0, select bank0
  3136  044E  00CC               	movwf	___fldiv@new_exp
  3137  044F  3000               	movlw	0
  3138  0450  00CD               	movwf	___fldiv@new_exp+1
  3139  0451  3000               	movlw	0
  3140  0452  00C1               	movwf	___fldiv@b+3
  3141  0453  3000               	movlw	0
  3142  0454  00C0               	movwf	___fldiv@b+2
  3143  0455  3000               	movlw	0
  3144  0456  00BF               	movwf	___fldiv@b+1
  3145  0457  3000               	movlw	0
  3146  0458  00BE               	movwf	___fldiv@b
  3147  0459                     l1653:	
  3148  0459  1283               	bcf	3,5	;RP0=0, select bank0
  3149  045A  1303               	bcf	3,6	;RP1=0, select bank0
  3150  045B  084D               	movf	___fldiv@new_exp+1,w
  3151  045C  3A80               	xorlw	128
  3152  045D  00FF               	movwf	btemp+1
  3153  045E  3080               	movlw	128
  3154  045F  027F               	subwf	btemp+1,w
  3155  0460  1D03               	skipz
  3156  0461  2C64               	goto	u1995
  3157  0462  3001               	movlw	1
  3158  0463  024C               	subwf	___fldiv@new_exp,w
  3159  0464                     u1995:	
  3160  0464  1803               	skipnc
  3161  0465  2C67               	goto	u1991
  3162  0466  2C68               	goto	u1990
  3163  0467                     u1991:	
  3164  0467  2C75               	goto	l562
  3165  0468                     u1990:	
  3166  0468                     l1655:	
  3167  0468  1283               	bcf	3,5	;RP0=0, select bank0
  3168  0469  1303               	bcf	3,6	;RP1=0, select bank0
  3169  046A  01CC               	clrf	___fldiv@new_exp
  3170  046B  01CD               	clrf	___fldiv@new_exp+1
  3171  046C                     l1657:	
  3172  046C  3000               	movlw	0
  3173  046D  00C1               	movwf	___fldiv@b+3
  3174  046E  3000               	movlw	0
  3175  046F  00C0               	movwf	___fldiv@b+2
  3176  0470  3000               	movlw	0
  3177  0471  00BF               	movwf	___fldiv@b+1
  3178  0472  3000               	movlw	0
  3179  0473  00BE               	movwf	___fldiv@b
  3180  0474                     l1659:	
  3181  0474  01CB               	clrf	___fldiv@sign
  3182  0475                     l562:	
  3183  0475  1283               	bcf	3,5	;RP0=0, select bank0
  3184  0476  1303               	bcf	3,6	;RP1=0, select bank0
  3185  0477  084C               	movf	___fldiv@new_exp,w
  3186  0478  00C2               	movwf	??___fldiv
  3187  0479  0842               	movf	??___fldiv,w
  3188  047A  00D2               	movwf	___fldiv@bexp
  3189  047B                     l1661:	
  3190  047B  1C52               	btfss	___fldiv@bexp,0
  3191  047C  2C7E               	goto	u2001
  3192  047D  2C7F               	goto	u2000
  3193  047E                     u2001:	
  3194  047E  2C81               	goto	l1665
  3195  047F                     u2000:	
  3196  047F                     l1663:	
  3197  047F  17C0               	bsf	___fldiv@b+2,7
  3198  0480  2C85               	goto	l564
  3199  0481                     l1665:	
  3200  0481  307F               	movlw	127
  3201  0482  00C2               	movwf	??___fldiv
  3202  0483  0842               	movf	??___fldiv,w
  3203  0484  05C0               	andwf	___fldiv@b+2,f
  3204  0485                     l564:	
  3205  0485  0852               	movf	___fldiv@bexp,w
  3206  0486  00C2               	movwf	??___fldiv
  3207  0487  1003               	clrc
  3208  0488  0C42               	rrf	??___fldiv,w
  3209  0489  00C3               	movwf	??___fldiv+1
  3210  048A  0843               	movf	??___fldiv+1,w
  3211  048B  00C1               	movwf	___fldiv@b+3
  3212  048C  084B               	movf	___fldiv@sign,w
  3213  048D  00C2               	movwf	??___fldiv
  3214  048E  0842               	movf	??___fldiv,w
  3215  048F  04C1               	iorwf	___fldiv@b+3,f
  3216  0490  2B29               	goto	l1573
  3217  0491                     l542:	
  3218  0491  0008               	return
  3219  0492                     __end_of___fldiv:	
  3220                           
  3221                           	psect	text6
  3222  0E82                     __ptext6:	
  3223 ;; *************** function ___awmod *****************
  3224 ;; Defined at:
  3225 ;;		line 5 in file "C:\Program Files (x86)\Microchip\xc8\v2.10\pic\sources\c90\common\awmod.c"
  3226 ;; Parameters:    Size  Location     Type
  3227 ;;  divisor         2    9[COMMON] int 
  3228 ;;  dividend        2   11[COMMON] int 
  3229 ;; Auto vars:     Size  Location     Type
  3230 ;;  sign            1    1[BANK0 ] unsigned char 
  3231 ;;  counter         1    0[BANK0 ] unsigned char 
  3232 ;; Return value:  Size  Location     Type
  3233 ;;                  2    9[COMMON] int 
  3234 ;; Registers used:
  3235 ;;		wreg, status,2, status,0
  3236 ;; Tracked objects:
  3237 ;;		On entry : 0/0
  3238 ;;		On exit  : 0/0
  3239 ;;		Unchanged: 0/0
  3240 ;; Data sizes:     COMMON   BANK0   BANK1   BANK3   BANK2
  3241 ;;      Params:         4       0       0       0       0
  3242 ;;      Locals:         0       2       0       0       0
  3243 ;;      Temps:          1       0       0       0       0
  3244 ;;      Totals:         5       2       0       0       0
  3245 ;;Total ram usage:        7 bytes
  3246 ;; Hardware stack levels used:    1
  3247 ;; This function calls:
  3248 ;;		Nothing
  3249 ;; This function is called by:
  3250 ;;		_main
  3251 ;; This function uses a non-reentrant model
  3252 ;;
  3253                           
  3254                           
  3255                           ;psect for function ___awmod
  3256  0E82                     ___awmod:	
  3257  0E82                     l1455:	
  3258                           ;incstack = 0
  3259                           ; Regs used in ___awmod: [wreg+status,2+status,0]
  3260                           
  3261  0E82  1283               	bcf	3,5	;RP0=0, select bank0
  3262  0E83  1303               	bcf	3,6	;RP1=0, select bank0
  3263  0E84  01A1               	clrf	___awmod@sign
  3264  0E85                     l1457:	
  3265  0E85  1FFC               	btfss	___awmod@dividend+1,7
  3266  0E86  2E88               	goto	u1531
  3267  0E87  2E89               	goto	u1530
  3268  0E88                     u1531:	
  3269  0E88  2E90               	goto	l1463
  3270  0E89                     u1530:	
  3271  0E89                     l1459:	
  3272  0E89  09FB               	comf	___awmod@dividend,f
  3273  0E8A  09FC               	comf	___awmod@dividend+1,f
  3274  0E8B  0AFB               	incf	___awmod@dividend,f
  3275  0E8C  1903               	skipnz
  3276  0E8D  0AFC               	incf	___awmod@dividend+1,f
  3277  0E8E                     l1461:	
  3278  0E8E  01A1               	clrf	___awmod@sign
  3279  0E8F  0AA1               	incf	___awmod@sign,f
  3280  0E90                     l1463:	
  3281  0E90  1FFA               	btfss	___awmod@divisor+1,7
  3282  0E91  2E93               	goto	u1541
  3283  0E92  2E94               	goto	u1540
  3284  0E93                     u1541:	
  3285  0E93  2E99               	goto	l1467
  3286  0E94                     u1540:	
  3287  0E94                     l1465:	
  3288  0E94  09F9               	comf	___awmod@divisor,f
  3289  0E95  09FA               	comf	___awmod@divisor+1,f
  3290  0E96  0AF9               	incf	___awmod@divisor,f
  3291  0E97  1903               	skipnz
  3292  0E98  0AFA               	incf	___awmod@divisor+1,f
  3293  0E99                     l1467:	
  3294  0E99  0879               	movf	___awmod@divisor,w
  3295  0E9A  047A               	iorwf	___awmod@divisor+1,w
  3296  0E9B  1903               	btfsc	3,2
  3297  0E9C  2E9E               	goto	u1551
  3298  0E9D  2E9F               	goto	u1550
  3299  0E9E                     u1551:	
  3300  0E9E  2ECE               	goto	l1485
  3301  0E9F                     u1550:	
  3302  0E9F                     l1469:	
  3303  0E9F  01A0               	clrf	___awmod@counter
  3304  0EA0  0AA0               	incf	___awmod@counter,f
  3305  0EA1  2EAD               	goto	l1475
  3306  0EA2                     l1471:	
  3307  0EA2  3001               	movlw	1
  3308  0EA3                     u1565:	
  3309  0EA3  1003               	clrc
  3310  0EA4  0DF9               	rlf	___awmod@divisor,f
  3311  0EA5  0DFA               	rlf	___awmod@divisor+1,f
  3312  0EA6  3EFF               	addlw	-1
  3313  0EA7  1D03               	skipz
  3314  0EA8  2EA3               	goto	u1565
  3315  0EA9                     l1473:	
  3316  0EA9  3001               	movlw	1
  3317  0EAA  00FD               	movwf	??___awmod
  3318  0EAB  087D               	movf	??___awmod,w
  3319  0EAC  07A0               	addwf	___awmod@counter,f
  3320  0EAD                     l1475:	
  3321  0EAD  1FFA               	btfss	___awmod@divisor+1,7
  3322  0EAE  2EB0               	goto	u1571
  3323  0EAF  2EB1               	goto	u1570
  3324  0EB0                     u1571:	
  3325  0EB0  2EA2               	goto	l1471
  3326  0EB1                     u1570:	
  3327  0EB1                     l1477:	
  3328  0EB1  087A               	movf	___awmod@divisor+1,w
  3329  0EB2  027C               	subwf	___awmod@dividend+1,w
  3330  0EB3  1D03               	skipz
  3331  0EB4  2EB7               	goto	u1585
  3332  0EB5  0879               	movf	___awmod@divisor,w
  3333  0EB6  027B               	subwf	___awmod@dividend,w
  3334  0EB7                     u1585:	
  3335  0EB7  1C03               	skipc
  3336  0EB8  2EBA               	goto	u1581
  3337  0EB9  2EBB               	goto	u1580
  3338  0EBA                     u1581:	
  3339  0EBA  2EC1               	goto	l1481
  3340  0EBB                     u1580:	
  3341  0EBB                     l1479:	
  3342  0EBB  0879               	movf	___awmod@divisor,w
  3343  0EBC  02FB               	subwf	___awmod@dividend,f
  3344  0EBD  087A               	movf	___awmod@divisor+1,w
  3345  0EBE  1C03               	skipc
  3346  0EBF  03FC               	decf	___awmod@dividend+1,f
  3347  0EC0  02FC               	subwf	___awmod@dividend+1,f
  3348  0EC1                     l1481:	
  3349  0EC1  3001               	movlw	1
  3350  0EC2                     u1595:	
  3351  0EC2  1003               	clrc
  3352  0EC3  0CFA               	rrf	___awmod@divisor+1,f
  3353  0EC4  0CF9               	rrf	___awmod@divisor,f
  3354  0EC5  3EFF               	addlw	-1
  3355  0EC6  1D03               	skipz
  3356  0EC7  2EC2               	goto	u1595
  3357  0EC8                     l1483:	
  3358  0EC8  3001               	movlw	1
  3359  0EC9  02A0               	subwf	___awmod@counter,f
  3360  0ECA  1D03               	btfss	3,2
  3361  0ECB  2ECD               	goto	u1601
  3362  0ECC  2ECE               	goto	u1600
  3363  0ECD                     u1601:	
  3364  0ECD  2EB1               	goto	l1477
  3365  0ECE                     u1600:	
  3366  0ECE                     l1485:	
  3367  0ECE  0821               	movf	___awmod@sign,w
  3368  0ECF  1903               	btfsc	3,2
  3369  0ED0  2ED2               	goto	u1611
  3370  0ED1  2ED3               	goto	u1610
  3371  0ED2                     u1611:	
  3372  0ED2  2ED8               	goto	l1489
  3373  0ED3                     u1610:	
  3374  0ED3                     l1487:	
  3375  0ED3  09FB               	comf	___awmod@dividend,f
  3376  0ED4  09FC               	comf	___awmod@dividend+1,f
  3377  0ED5  0AFB               	incf	___awmod@dividend,f
  3378  0ED6  1903               	skipnz
  3379  0ED7  0AFC               	incf	___awmod@dividend+1,f
  3380  0ED8                     l1489:	
  3381  0ED8  087C               	movf	___awmod@dividend+1,w
  3382  0ED9  00FA               	movwf	?___awmod+1
  3383  0EDA  087B               	movf	___awmod@dividend,w
  3384  0EDB  00F9               	movwf	?___awmod
  3385  0EDC                     l357:	
  3386  0EDC  0008               	return
  3387  0EDD                     __end_of___awmod:	
  3388                           
  3389                           	psect	text7
  3390  0F99                     __ptext7:	
  3391 ;; *************** function ___awdiv *****************
  3392 ;; Defined at:
  3393 ;;		line 5 in file "C:\Program Files (x86)\Microchip\xc8\v2.10\pic\sources\c90\common\awdiv.c"
  3394 ;; Parameters:    Size  Location     Type
  3395 ;;  divisor         2    0[COMMON] int 
  3396 ;;  dividend        2    2[COMMON] int 
  3397 ;; Auto vars:     Size  Location     Type
  3398 ;;  quotient        2    7[COMMON] int 
  3399 ;;  sign            1    6[COMMON] unsigned char 
  3400 ;;  counter         1    5[COMMON] unsigned char 
  3401 ;; Return value:  Size  Location     Type
  3402 ;;                  2    0[COMMON] int 
  3403 ;; Registers used:
  3404 ;;		wreg, status,2, status,0
  3405 ;; Tracked objects:
  3406 ;;		On entry : 0/0
  3407 ;;		On exit  : 0/0
  3408 ;;		Unchanged: 0/0
  3409 ;; Data sizes:     COMMON   BANK0   BANK1   BANK3   BANK2
  3410 ;;      Params:         4       0       0       0       0
  3411 ;;      Locals:         4       0       0       0       0
  3412 ;;      Temps:          1       0       0       0       0
  3413 ;;      Totals:         9       0       0       0       0
  3414 ;;Total ram usage:        9 bytes
  3415 ;; Hardware stack levels used:    1
  3416 ;; This function calls:
  3417 ;;		Nothing
  3418 ;; This function is called by:
  3419 ;;		_main
  3420 ;; This function uses a non-reentrant model
  3421 ;;
  3422                           
  3423                           
  3424                           ;psect for function ___awdiv
  3425  0F99                     ___awdiv:	
  3426  0F99                     l1411:	
  3427                           ;incstack = 0
  3428                           ; Regs used in ___awdiv: [wreg+status,2+status,0]
  3429                           
  3430  0F99  01F6               	clrf	___awdiv@sign
  3431  0F9A                     l1413:	
  3432  0F9A  1FF1               	btfss	___awdiv@divisor+1,7
  3433  0F9B  2F9D               	goto	u1431
  3434  0F9C  2F9E               	goto	u1430
  3435  0F9D                     u1431:	
  3436  0F9D  2FA5               	goto	l1419
  3437  0F9E                     u1430:	
  3438  0F9E                     l1415:	
  3439  0F9E  09F0               	comf	___awdiv@divisor,f
  3440  0F9F  09F1               	comf	___awdiv@divisor+1,f
  3441  0FA0  0AF0               	incf	___awdiv@divisor,f
  3442  0FA1  1903               	skipnz
  3443  0FA2  0AF1               	incf	___awdiv@divisor+1,f
  3444  0FA3                     l1417:	
  3445  0FA3  01F6               	clrf	___awdiv@sign
  3446  0FA4  0AF6               	incf	___awdiv@sign,f
  3447  0FA5                     l1419:	
  3448  0FA5  1FF3               	btfss	___awdiv@dividend+1,7
  3449  0FA6  2FA8               	goto	u1441
  3450  0FA7  2FA9               	goto	u1440
  3451  0FA8                     u1441:	
  3452  0FA8  2FB2               	goto	l1425
  3453  0FA9                     u1440:	
  3454  0FA9                     l1421:	
  3455  0FA9  09F2               	comf	___awdiv@dividend,f
  3456  0FAA  09F3               	comf	___awdiv@dividend+1,f
  3457  0FAB  0AF2               	incf	___awdiv@dividend,f
  3458  0FAC  1903               	skipnz
  3459  0FAD  0AF3               	incf	___awdiv@dividend+1,f
  3460  0FAE                     l1423:	
  3461  0FAE  3001               	movlw	1
  3462  0FAF  00F4               	movwf	??___awdiv
  3463  0FB0  0874               	movf	??___awdiv,w
  3464  0FB1  06F6               	xorwf	___awdiv@sign,f
  3465  0FB2                     l1425:	
  3466  0FB2  01F7               	clrf	___awdiv@quotient
  3467  0FB3  01F8               	clrf	___awdiv@quotient+1
  3468  0FB4                     l1427:	
  3469  0FB4  0870               	movf	___awdiv@divisor,w
  3470  0FB5  0471               	iorwf	___awdiv@divisor+1,w
  3471  0FB6  1903               	btfsc	3,2
  3472  0FB7  2FB9               	goto	u1451
  3473  0FB8  2FBA               	goto	u1450
  3474  0FB9                     u1451:	
  3475  0FB9  2FF1               	goto	l1447
  3476  0FBA                     u1450:	
  3477  0FBA                     l1429:	
  3478  0FBA  01F5               	clrf	___awdiv@counter
  3479  0FBB  0AF5               	incf	___awdiv@counter,f
  3480  0FBC  2FC8               	goto	l1435
  3481  0FBD                     l1431:	
  3482  0FBD  3001               	movlw	1
  3483  0FBE                     u1465:	
  3484  0FBE  1003               	clrc
  3485  0FBF  0DF0               	rlf	___awdiv@divisor,f
  3486  0FC0  0DF1               	rlf	___awdiv@divisor+1,f
  3487  0FC1  3EFF               	addlw	-1
  3488  0FC2  1D03               	skipz
  3489  0FC3  2FBE               	goto	u1465
  3490  0FC4                     l1433:	
  3491  0FC4  3001               	movlw	1
  3492  0FC5  00F4               	movwf	??___awdiv
  3493  0FC6  0874               	movf	??___awdiv,w
  3494  0FC7  07F5               	addwf	___awdiv@counter,f
  3495  0FC8                     l1435:	
  3496  0FC8  1FF1               	btfss	___awdiv@divisor+1,7
  3497  0FC9  2FCB               	goto	u1471
  3498  0FCA  2FCC               	goto	u1470
  3499  0FCB                     u1471:	
  3500  0FCB  2FBD               	goto	l1431
  3501  0FCC                     u1470:	
  3502  0FCC                     l1437:	
  3503  0FCC  3001               	movlw	1
  3504  0FCD                     u1485:	
  3505  0FCD  1003               	clrc
  3506  0FCE  0DF7               	rlf	___awdiv@quotient,f
  3507  0FCF  0DF8               	rlf	___awdiv@quotient+1,f
  3508  0FD0  3EFF               	addlw	-1
  3509  0FD1  1D03               	skipz
  3510  0FD2  2FCD               	goto	u1485
  3511  0FD3  0871               	movf	___awdiv@divisor+1,w
  3512  0FD4  0273               	subwf	___awdiv@dividend+1,w
  3513  0FD5  1D03               	skipz
  3514  0FD6  2FD9               	goto	u1495
  3515  0FD7  0870               	movf	___awdiv@divisor,w
  3516  0FD8  0272               	subwf	___awdiv@dividend,w
  3517  0FD9                     u1495:	
  3518  0FD9  1C03               	skipc
  3519  0FDA  2FDC               	goto	u1491
  3520  0FDB  2FDD               	goto	u1490
  3521  0FDC                     u1491:	
  3522  0FDC  2FE4               	goto	l1443
  3523  0FDD                     u1490:	
  3524  0FDD                     l1439:	
  3525  0FDD  0870               	movf	___awdiv@divisor,w
  3526  0FDE  02F2               	subwf	___awdiv@dividend,f
  3527  0FDF  0871               	movf	___awdiv@divisor+1,w
  3528  0FE0  1C03               	skipc
  3529  0FE1  03F3               	decf	___awdiv@dividend+1,f
  3530  0FE2  02F3               	subwf	___awdiv@dividend+1,f
  3531  0FE3                     l1441:	
  3532  0FE3  1477               	bsf	___awdiv@quotient,0
  3533  0FE4                     l1443:	
  3534  0FE4  3001               	movlw	1
  3535  0FE5                     u1505:	
  3536  0FE5  1003               	clrc
  3537  0FE6  0CF1               	rrf	___awdiv@divisor+1,f
  3538  0FE7  0CF0               	rrf	___awdiv@divisor,f
  3539  0FE8  3EFF               	addlw	-1
  3540  0FE9  1D03               	skipz
  3541  0FEA  2FE5               	goto	u1505
  3542  0FEB                     l1445:	
  3543  0FEB  3001               	movlw	1
  3544  0FEC  02F5               	subwf	___awdiv@counter,f
  3545  0FED  1D03               	btfss	3,2
  3546  0FEE  2FF0               	goto	u1511
  3547  0FEF  2FF1               	goto	u1510
  3548  0FF0                     u1511:	
  3549  0FF0  2FCC               	goto	l1437
  3550  0FF1                     u1510:	
  3551  0FF1                     l1447:	
  3552  0FF1  0876               	movf	___awdiv@sign,w
  3553  0FF2  1903               	btfsc	3,2
  3554  0FF3  2FF5               	goto	u1521
  3555  0FF4  2FF6               	goto	u1520
  3556  0FF5                     u1521:	
  3557  0FF5  2FFB               	goto	l1451
  3558  0FF6                     u1520:	
  3559  0FF6                     l1449:	
  3560  0FF6  09F7               	comf	___awdiv@quotient,f
  3561  0FF7  09F8               	comf	___awdiv@quotient+1,f
  3562  0FF8  0AF7               	incf	___awdiv@quotient,f
  3563  0FF9  1903               	skipnz
  3564  0FFA  0AF8               	incf	___awdiv@quotient+1,f
  3565  0FFB                     l1451:	
  3566  0FFB  0878               	movf	___awdiv@quotient+1,w
  3567  0FFC  00F1               	movwf	?___awdiv+1
  3568  0FFD  0877               	movf	___awdiv@quotient,w
  3569  0FFE  00F0               	movwf	?___awdiv
  3570  0FFF                     l344:	
  3571  0FFF  0008               	return
  3572  1000                     __end_of___awdiv:	
  3573                           
  3574                           	psect	text8
  3575  0E0B                     __ptext8:	
  3576 ;; *************** function _Lcd_Write_String *****************
  3577 ;; Defined at:
  3578 ;;		line 97 in file "./lcd.h"
  3579 ;; Parameters:    Size  Location     Type
  3580 ;;  a               1    wreg     PTR unsigned char 
  3581 ;;		 -> STR_4(10), STR_3(14), STR_2(10), STR_1(12), 
  3582 ;; Auto vars:     Size  Location     Type
  3583 ;;  a               1   11[COMMON] PTR unsigned char 
  3584 ;;		 -> STR_4(10), STR_3(14), STR_2(10), STR_1(12), 
  3585 ;;  i               2    9[COMMON] int 
  3586 ;; Return value:  Size  Location     Type
  3587 ;;                  1    wreg      void 
  3588 ;; Registers used:
  3589 ;;		wreg, fsr0l, fsr0h, status,2, status,0, btemp+1, pclath, cstack
  3590 ;; Tracked objects:
  3591 ;;		On entry : 0/0
  3592 ;;		On exit  : 0/0
  3593 ;;		Unchanged: 0/0
  3594 ;; Data sizes:     COMMON   BANK0   BANK1   BANK3   BANK2
  3595 ;;      Params:         0       0       0       0       0
  3596 ;;      Locals:         3       0       0       0       0
  3597 ;;      Temps:          0       0       0       0       0
  3598 ;;      Totals:         3       0       0       0       0
  3599 ;;Total ram usage:        3 bytes
  3600 ;; Hardware stack levels used:    1
  3601 ;; Hardware stack levels required when called:    2
  3602 ;; This function calls:
  3603 ;;		_Lcd_Write_Char
  3604 ;; This function is called by:
  3605 ;;		_main
  3606 ;; This function uses a non-reentrant model
  3607 ;;
  3608                           
  3609                           
  3610                           ;psect for function _Lcd_Write_String
  3611  0E0B                     _Lcd_Write_String:	
  3612                           
  3613                           ;incstack = 0
  3614                           ; Regs used in _Lcd_Write_String: [wreg-fsr0h+status,2+status,0+btemp+1+pclath+cstack]
  3615                           ;Lcd_Write_String@a stored from wreg
  3616  0E0B  00FB               	movwf	Lcd_Write_String@a
  3617  0E0C                     l1403:	
  3618                           
  3619                           ;./lcd.h: 97: void Lcd_Write_String(char *a);./lcd.h: 98: {;./lcd.h: 99:  int i;;./lcd.h
      +                          : 100:  for(i=0;a[i]!='\0';i++)
  3620  0E0C  01F9               	clrf	Lcd_Write_String@i
  3621  0E0D  01FA               	clrf	Lcd_Write_String@i+1
  3622  0E0E  2E22               	goto	l1409
  3623  0E0F                     l1405:	
  3624                           
  3625                           ;./lcd.h: 101:     Lcd_Write_Char(a[i]);
  3626  0E0F  0879               	movf	Lcd_Write_String@i,w
  3627  0E10  077B               	addwf	Lcd_Write_String@a,w
  3628  0E11  0084               	movwf	4
  3629  0E12  120A  158A  2000  120A  158A  	fcall	stringdir
  3630  0E17  120A  158A  273A  120A  158A  	fcall	_Lcd_Write_Char
  3631  0E1C                     l1407:	
  3632  0E1C  3001               	movlw	1
  3633  0E1D  07F9               	addwf	Lcd_Write_String@i,f
  3634  0E1E  1803               	skipnc
  3635  0E1F  0AFA               	incf	Lcd_Write_String@i+1,f
  3636  0E20  3000               	movlw	0
  3637  0E21  07FA               	addwf	Lcd_Write_String@i+1,f
  3638  0E22                     l1409:	
  3639  0E22  0879               	movf	Lcd_Write_String@i,w
  3640  0E23  077B               	addwf	Lcd_Write_String@a,w
  3641  0E24  0084               	movwf	4
  3642  0E25  120A  158A  2000  120A  158A  	fcall	stringdir
  3643  0E2A  3A00               	xorlw	0
  3644  0E2B  1D03               	skipz
  3645  0E2C  2E2E               	goto	u1421
  3646  0E2D  2E2F               	goto	u1420
  3647  0E2E                     u1421:	
  3648  0E2E  2E0F               	goto	l1405
  3649  0E2F                     u1420:	
  3650  0E2F                     l79:	
  3651  0E2F  0008               	return
  3652  0E30                     __end_of_Lcd_Write_String:	
  3653                           
  3654                           	psect	text9
  3655  0F3A                     __ptext9:	
  3656 ;; *************** function _Lcd_Write_Char *****************
  3657 ;; Defined at:
  3658 ;;		line 81 in file "./lcd.h"
  3659 ;; Parameters:    Size  Location     Type
  3660 ;;  data            1    wreg     unsigned char 
  3661 ;; Auto vars:     Size  Location     Type
  3662 ;;  data            1    4[COMMON] unsigned char 
  3663 ;;  i               2    7[COMMON] int 
  3664 ;;  i               2    5[COMMON] int 
  3665 ;;  Upper_Nibble    1    3[COMMON] unsigned char 
  3666 ;;  Lower_Nibble    1    2[COMMON] unsigned char 
  3667 ;; Return value:  Size  Location     Type
  3668 ;;                  1    wreg      void 
  3669 ;; Registers used:
  3670 ;;		wreg, status,2, status,0, btemp+1, pclath, cstack
  3671 ;; Tracked objects:
  3672 ;;		On entry : 0/0
  3673 ;;		On exit  : 0/0
  3674 ;;		Unchanged: 0/0
  3675 ;; Data sizes:     COMMON   BANK0   BANK1   BANK3   BANK2
  3676 ;;      Params:         0       0       0       0       0
  3677 ;;      Locals:         7       0       0       0       0
  3678 ;;      Temps:          1       0       0       0       0
  3679 ;;      Totals:         8       0       0       0       0
  3680 ;;Total ram usage:        8 bytes
  3681 ;; Hardware stack levels used:    1
  3682 ;; Hardware stack levels required when called:    1
  3683 ;; This function calls:
  3684 ;;		_Lcd_Port
  3685 ;; This function is called by:
  3686 ;;		_Lcd_Write_String
  3687 ;;		_main
  3688 ;; This function uses a non-reentrant model
  3689 ;;
  3690                           
  3691                           
  3692                           ;psect for function _Lcd_Write_Char
  3693  0F3A                     _Lcd_Write_Char:	
  3694                           
  3695                           ;incstack = 0
  3696                           ; Regs used in _Lcd_Write_Char: [wreg+status,2+status,0+btemp+1+pclath+cstack]
  3697                           ;Lcd_Write_Char@data stored from wreg
  3698  0F3A  00F4               	movwf	Lcd_Write_Char@data
  3699  0F3B                     l1325:	
  3700                           
  3701                           ;./lcd.h: 81: void Lcd_Write_Char(char data);./lcd.h: 82: {;./lcd.h: 83:    char Lower_N
      +                          ibble,Upper_Nibble;;./lcd.h: 84:    Lower_Nibble = data&0x0F;
  3702  0F3B  0874               	movf	Lcd_Write_Char@data,w
  3703  0F3C  390F               	andlw	15
  3704  0F3D  00F1               	movwf	??_Lcd_Write_Char
  3705  0F3E  0871               	movf	??_Lcd_Write_Char,w
  3706  0F3F  00F2               	movwf	Lcd_Write_Char@Lower_Nibble
  3707                           
  3708                           ;./lcd.h: 85:    Upper_Nibble = data&0xF0;
  3709  0F40  0874               	movf	Lcd_Write_Char@data,w
  3710  0F41  39F0               	andlw	240
  3711  0F42  00F1               	movwf	??_Lcd_Write_Char
  3712  0F43  0871               	movf	??_Lcd_Write_Char,w
  3713  0F44  00F3               	movwf	Lcd_Write_Char@Upper_Nibble
  3714  0F45                     l1327:	
  3715                           
  3716                           ;./lcd.h: 86:    RD2 = 1;
  3717  0F45  1283               	bcf	3,5	;RP0=0, select bank0
  3718  0F46  1303               	bcf	3,6	;RP1=0, select bank0
  3719  0F47  1508               	bsf	8,2	;volatile
  3720  0F48                     l1329:	
  3721                           
  3722                           ;./lcd.h: 87:    Lcd_Port(Upper_Nibble>>4);
  3723  0F48  0873               	movf	Lcd_Write_Char@Upper_Nibble,w
  3724  0F49  00F1               	movwf	??_Lcd_Write_Char
  3725  0F4A  3004               	movlw	4
  3726  0F4B                     u1325:	
  3727  0F4B  1003               	clrc
  3728  0F4C  0CF1               	rrf	??_Lcd_Write_Char,f
  3729  0F4D  3EFF               	addlw	-1
  3730  0F4E  1D03               	skipz
  3731  0F4F  2F4B               	goto	u1325
  3732  0F50  0871               	movf	??_Lcd_Write_Char,w
  3733  0F51  120A  158A  25E9  120A  158A  	fcall	_Lcd_Port
  3734  0F56                     l1331:	
  3735                           
  3736                           ;./lcd.h: 88:    RD3 = 1;
  3737  0F56  1283               	bcf	3,5	;RP0=0, select bank0
  3738  0F57  1303               	bcf	3,6	;RP1=0, select bank0
  3739  0F58  1588               	bsf	8,3	;volatile
  3740  0F59                     l1333:	
  3741                           
  3742                           ;./lcd.h: 89:    for(int i=2130483; i<=0; i--) __nop();
  3743  0F59  3033               	movlw	51
  3744  0F5A  00F5               	movwf	Lcd_Write_Char@i
  3745  0F5B  3082               	movlw	130
  3746  0F5C  00F6               	movwf	Lcd_Write_Char@i+1
  3747  0F5D                     l69:	
  3748  0F5D  0000               	nop
  3749  0F5E                     l1339:	
  3750  0F5E  30FF               	movlw	255
  3751  0F5F  07F5               	addwf	Lcd_Write_Char@i,f
  3752  0F60  1803               	skipnc
  3753  0F61  0AF6               	incf	Lcd_Write_Char@i+1,f
  3754  0F62  30FF               	movlw	255
  3755  0F63  07F6               	addwf	Lcd_Write_Char@i+1,f
  3756  0F64                     l1341:	
  3757  0F64  0876               	movf	Lcd_Write_Char@i+1,w
  3758  0F65  3A80               	xorlw	128
  3759  0F66  00FF               	movwf	btemp+1
  3760  0F67  3080               	movlw	128
  3761  0F68  027F               	subwf	btemp+1,w
  3762  0F69  1D03               	skipz
  3763  0F6A  2F6D               	goto	u1335
  3764  0F6B  3001               	movlw	1
  3765  0F6C  0275               	subwf	Lcd_Write_Char@i,w
  3766  0F6D                     u1335:	
  3767  0F6D  1C03               	skipc
  3768  0F6E  2F70               	goto	u1331
  3769  0F6F  2F71               	goto	u1330
  3770  0F70                     u1331:	
  3771  0F70  2F5D               	goto	l69
  3772  0F71                     u1330:	
  3773  0F71                     l70:	
  3774                           
  3775                           ;./lcd.h: 90:    RD3 = 0;
  3776  0F71  1283               	bcf	3,5	;RP0=0, select bank0
  3777  0F72  1303               	bcf	3,6	;RP1=0, select bank0
  3778  0F73  1188               	bcf	8,3	;volatile
  3779  0F74                     l1343:	
  3780                           
  3781                           ;./lcd.h: 91:    Lcd_Port(Lower_Nibble);
  3782  0F74  0872               	movf	Lcd_Write_Char@Lower_Nibble,w
  3783  0F75  120A  158A  25E9  120A  158A  	fcall	_Lcd_Port
  3784  0F7A                     l1345:	
  3785                           
  3786                           ;./lcd.h: 92:    RD3 = 1;
  3787  0F7A  1283               	bcf	3,5	;RP0=0, select bank0
  3788  0F7B  1303               	bcf	3,6	;RP1=0, select bank0
  3789  0F7C  1588               	bsf	8,3	;volatile
  3790  0F7D                     l1347:	
  3791                           
  3792                           ;./lcd.h: 93:    for(int i=2130483; i<=0; i--) __nop();
  3793  0F7D  3033               	movlw	51
  3794  0F7E  00F7               	movwf	Lcd_Write_Char@i_69
  3795  0F7F  3082               	movlw	130
  3796  0F80  00F8               	movwf	Lcd_Write_Char@i_69+1
  3797  0F81                     l71:	
  3798  0F81  0000               	nop
  3799  0F82                     l1353:	
  3800  0F82  30FF               	movlw	255
  3801  0F83  07F7               	addwf	Lcd_Write_Char@i_69,f
  3802  0F84  1803               	skipnc
  3803  0F85  0AF8               	incf	Lcd_Write_Char@i_69+1,f
  3804  0F86  30FF               	movlw	255
  3805  0F87  07F8               	addwf	Lcd_Write_Char@i_69+1,f
  3806  0F88                     l1355:	
  3807  0F88  0878               	movf	Lcd_Write_Char@i_69+1,w
  3808  0F89  3A80               	xorlw	128
  3809  0F8A  00FF               	movwf	btemp+1
  3810  0F8B  3080               	movlw	128
  3811  0F8C  027F               	subwf	btemp+1,w
  3812  0F8D  1D03               	skipz
  3813  0F8E  2F91               	goto	u1345
  3814  0F8F  3001               	movlw	1
  3815  0F90  0277               	subwf	Lcd_Write_Char@i_69,w
  3816  0F91                     u1345:	
  3817  0F91  1C03               	skipc
  3818  0F92  2F94               	goto	u1341
  3819  0F93  2F95               	goto	u1340
  3820  0F94                     u1341:	
  3821  0F94  2F81               	goto	l71
  3822  0F95                     u1340:	
  3823  0F95                     l72:	
  3824                           
  3825                           ;./lcd.h: 94:    RD3 = 0;
  3826  0F95  1283               	bcf	3,5	;RP0=0, select bank0
  3827  0F96  1303               	bcf	3,6	;RP1=0, select bank0
  3828  0F97  1188               	bcf	8,3	;volatile
  3829  0F98                     l73:	
  3830  0F98  0008               	return
  3831  0F99                     __end_of_Lcd_Write_Char:	
  3832                           
  3833                           	psect	text10
  3834  0E30                     __ptext10:	
  3835 ;; *************** function _Lcd_Set_Cursor *****************
  3836 ;; Defined at:
  3837 ;;		line 41 in file "./lcd.h"
  3838 ;; Parameters:    Size  Location     Type
  3839 ;;  a               1    wreg     unsigned char 
  3840 ;;  b               1    4[COMMON] unsigned char 
  3841 ;; Auto vars:     Size  Location     Type
  3842 ;;  a               1    7[COMMON] unsigned char 
  3843 ;;  temp            1   10[COMMON] unsigned char 
  3844 ;;  y               1    9[COMMON] unsigned char 
  3845 ;;  z               1    8[COMMON] unsigned char 
  3846 ;; Return value:  Size  Location     Type
  3847 ;;                  1    wreg      void 
  3848 ;; Registers used:
  3849 ;;		wreg, status,2, status,0, pclath, cstack
  3850 ;; Tracked objects:
  3851 ;;		On entry : 0/0
  3852 ;;		On exit  : 0/0
  3853 ;;		Unchanged: 0/0
  3854 ;; Data sizes:     COMMON   BANK0   BANK1   BANK3   BANK2
  3855 ;;      Params:         1       0       0       0       0
  3856 ;;      Locals:         4       0       0       0       0
  3857 ;;      Temps:          2       0       0       0       0
  3858 ;;      Totals:         7       0       0       0       0
  3859 ;;Total ram usage:        7 bytes
  3860 ;; Hardware stack levels used:    1
  3861 ;; Hardware stack levels required when called:    2
  3862 ;; This function calls:
  3863 ;;		_Lcd_Cmd
  3864 ;; This function is called by:
  3865 ;;		_main
  3866 ;; This function uses a non-reentrant model
  3867 ;;
  3868                           
  3869                           
  3870                           ;psect for function _Lcd_Set_Cursor
  3871  0E30                     _Lcd_Set_Cursor:	
  3872                           
  3873                           ;incstack = 0
  3874                           ; Regs used in _Lcd_Set_Cursor: [wreg+status,2+status,0+pclath+cstack]
  3875                           ;Lcd_Set_Cursor@a stored from wreg
  3876  0E30  00F7               	movwf	Lcd_Set_Cursor@a
  3877  0E31                     l1373:	
  3878                           
  3879                           ;./lcd.h: 41: void Lcd_Set_Cursor(char a, char b);./lcd.h: 42: {;./lcd.h: 43:  char temp
      +                          ,z,y;;./lcd.h: 44:  if(a == 1)
  3880  0E31  0377               	decf	Lcd_Set_Cursor@a,w
  3881  0E32  1D03               	btfss	3,2
  3882  0E33  2E35               	goto	u1381
  3883  0E34  2E36               	goto	u1380
  3884  0E35                     u1381:	
  3885  0E35  2E59               	goto	l1383
  3886  0E36                     u1380:	
  3887  0E36                     l1375:	
  3888                           
  3889                           ;./lcd.h: 45:  {;./lcd.h: 46:    temp = 0x80 + b - 1;
  3890  0E36  0874               	movf	Lcd_Set_Cursor@b,w
  3891  0E37  3E7F               	addlw	127
  3892  0E38  00F5               	movwf	??_Lcd_Set_Cursor
  3893  0E39  0875               	movf	??_Lcd_Set_Cursor,w
  3894  0E3A  00FA               	movwf	Lcd_Set_Cursor@temp
  3895                           
  3896                           ;./lcd.h: 47:   z = temp>>4;
  3897  0E3B  087A               	movf	Lcd_Set_Cursor@temp,w
  3898  0E3C  00F5               	movwf	??_Lcd_Set_Cursor
  3899  0E3D  3004               	movlw	4
  3900  0E3E                     u1395:	
  3901  0E3E  1003               	clrc
  3902  0E3F  0CF5               	rrf	??_Lcd_Set_Cursor,f
  3903  0E40  3EFF               	addlw	-1
  3904  0E41  1D03               	skipz
  3905  0E42  2E3E               	goto	u1395
  3906  0E43  0875               	movf	??_Lcd_Set_Cursor,w
  3907  0E44  00F6               	movwf	??_Lcd_Set_Cursor+1
  3908  0E45  0876               	movf	??_Lcd_Set_Cursor+1,w
  3909  0E46  00F8               	movwf	Lcd_Set_Cursor@z
  3910  0E47                     l1377:	
  3911                           
  3912                           ;./lcd.h: 48:   y = temp & 0x0F;
  3913  0E47  087A               	movf	Lcd_Set_Cursor@temp,w
  3914  0E48  390F               	andlw	15
  3915  0E49  00F5               	movwf	??_Lcd_Set_Cursor
  3916  0E4A  0875               	movf	??_Lcd_Set_Cursor,w
  3917  0E4B  00F9               	movwf	Lcd_Set_Cursor@y
  3918  0E4C                     l1379:	
  3919                           
  3920                           ;./lcd.h: 49:   Lcd_Cmd(z);
  3921  0E4C  0878               	movf	Lcd_Set_Cursor@z,w
  3922  0E4D  120A  158A  25CF  120A  158A  	fcall	_Lcd_Cmd
  3923  0E52                     l1381:	
  3924                           
  3925                           ;./lcd.h: 50:   Lcd_Cmd(y);
  3926  0E52  0879               	movf	Lcd_Set_Cursor@y,w
  3927  0E53  120A  158A  25CF  120A  158A  	fcall	_Lcd_Cmd
  3928                           
  3929                           ;./lcd.h: 51:  }
  3930  0E58  2E81               	goto	l63
  3931  0E59                     l1383:	
  3932  0E59  3002               	movlw	2
  3933  0E5A  0677               	xorwf	Lcd_Set_Cursor@a,w
  3934  0E5B  1D03               	btfss	3,2
  3935  0E5C  2E5E               	goto	u1401
  3936  0E5D  2E5F               	goto	u1400
  3937  0E5E                     u1401:	
  3938  0E5E  2E81               	goto	l63
  3939  0E5F                     u1400:	
  3940  0E5F                     l1385:	
  3941                           
  3942                           ;./lcd.h: 53:  {;./lcd.h: 54:   temp = 0xC0 + b - 1;
  3943  0E5F  0874               	movf	Lcd_Set_Cursor@b,w
  3944  0E60  3EBF               	addlw	191
  3945  0E61  00F5               	movwf	??_Lcd_Set_Cursor
  3946  0E62  0875               	movf	??_Lcd_Set_Cursor,w
  3947  0E63  00FA               	movwf	Lcd_Set_Cursor@temp
  3948                           
  3949                           ;./lcd.h: 55:   z = temp>>4;
  3950  0E64  087A               	movf	Lcd_Set_Cursor@temp,w
  3951  0E65  00F5               	movwf	??_Lcd_Set_Cursor
  3952  0E66  3004               	movlw	4
  3953  0E67                     u1415:	
  3954  0E67  1003               	clrc
  3955  0E68  0CF5               	rrf	??_Lcd_Set_Cursor,f
  3956  0E69  3EFF               	addlw	-1
  3957  0E6A  1D03               	skipz
  3958  0E6B  2E67               	goto	u1415
  3959  0E6C  0875               	movf	??_Lcd_Set_Cursor,w
  3960  0E6D  00F6               	movwf	??_Lcd_Set_Cursor+1
  3961  0E6E  0876               	movf	??_Lcd_Set_Cursor+1,w
  3962  0E6F  00F8               	movwf	Lcd_Set_Cursor@z
  3963  0E70                     l1387:	
  3964                           
  3965                           ;./lcd.h: 56:   y = temp & 0x0F;
  3966  0E70  087A               	movf	Lcd_Set_Cursor@temp,w
  3967  0E71  390F               	andlw	15
  3968  0E72  00F5               	movwf	??_Lcd_Set_Cursor
  3969  0E73  0875               	movf	??_Lcd_Set_Cursor,w
  3970  0E74  00F9               	movwf	Lcd_Set_Cursor@y
  3971  0E75                     l1389:	
  3972                           
  3973                           ;./lcd.h: 57:   Lcd_Cmd(z);
  3974  0E75  0878               	movf	Lcd_Set_Cursor@z,w
  3975  0E76  120A  158A  25CF  120A  158A  	fcall	_Lcd_Cmd
  3976  0E7B                     l1391:	
  3977                           
  3978                           ;./lcd.h: 58:   Lcd_Cmd(y);
  3979  0E7B  0879               	movf	Lcd_Set_Cursor@y,w
  3980  0E7C  120A  158A  25CF  120A  158A  	fcall	_Lcd_Cmd
  3981  0E81                     l63:	
  3982  0E81  0008               	return
  3983  0E82                     __end_of_Lcd_Set_Cursor:	
  3984                           
  3985                           	psect	text11
  3986  0EDD                     __ptext11:	
  3987 ;; *************** function _Lcd_Init *****************
  3988 ;; Defined at:
  3989 ;;		line 62 in file "./lcd.h"
  3990 ;; Parameters:    Size  Location     Type
  3991 ;;		None
  3992 ;; Auto vars:     Size  Location     Type
  3993 ;;		None
  3994 ;; Return value:  Size  Location     Type
  3995 ;;                  1    wreg      void 
  3996 ;; Registers used:
  3997 ;;		wreg, status,2, status,0, pclath, cstack
  3998 ;; Tracked objects:
  3999 ;;		On entry : 0/0
  4000 ;;		On exit  : 0/0
  4001 ;;		Unchanged: 0/0
  4002 ;; Data sizes:     COMMON   BANK0   BANK1   BANK3   BANK2
  4003 ;;      Params:         0       0       0       0       0
  4004 ;;      Locals:         0       0       0       0       0
  4005 ;;      Temps:          2       0       0       0       0
  4006 ;;      Totals:         2       0       0       0       0
  4007 ;;Total ram usage:        2 bytes
  4008 ;; Hardware stack levels used:    1
  4009 ;; Hardware stack levels required when called:    2
  4010 ;; This function calls:
  4011 ;;		_Lcd_Cmd
  4012 ;;		_Lcd_Port
  4013 ;; This function is called by:
  4014 ;;		_main
  4015 ;; This function uses a non-reentrant model
  4016 ;;
  4017                           
  4018                           
  4019                           ;psect for function _Lcd_Init
  4020  0EDD                     _Lcd_Init:	
  4021  0EDD                     l1393:	
  4022                           ;incstack = 0
  4023                           ; Regs used in _Lcd_Init: [wreg+status,2+status,0+pclath+cstack]
  4024                           
  4025                           
  4026                           ;./lcd.h: 64:   Lcd_Port(0x00);
  4027  0EDD  3000               	movlw	0
  4028  0EDE  120A  158A  25E9  120A  158A  	fcall	_Lcd_Port
  4029  0EE3                     l1395:	
  4030                           
  4031                           ;./lcd.h: 65:    _delay((unsigned long)((20)*(4000000/4000.0)));
  4032  0EE3  301A               	movlw	26
  4033  0EE4  00F5               	movwf	??_Lcd_Init+1
  4034  0EE5  30F8               	movlw	248
  4035  0EE6  00F4               	movwf	??_Lcd_Init
  4036  0EE7                     u2577:	
  4037  0EE7  0BF4               	decfsz	??_Lcd_Init,f
  4038  0EE8  2EE7               	goto	u2577
  4039  0EE9  0BF5               	decfsz	??_Lcd_Init+1,f
  4040  0EEA  2EE7               	goto	u2577
  4041  0EEB  0000               	nop
  4042  0EEC                     l1397:	
  4043                           
  4044                           ;./lcd.h: 66:   Lcd_Cmd(0x03);
  4045  0EEC  3003               	movlw	3
  4046  0EED  120A  158A  25CF  120A  158A  	fcall	_Lcd_Cmd
  4047                           
  4048                           ;./lcd.h: 67:  _delay((unsigned long)((5)*(4000000/4000.0)));
  4049  0EF2  3007               	movlw	7
  4050  0EF3  00F5               	movwf	??_Lcd_Init+1
  4051  0EF4  307D               	movlw	125
  4052  0EF5  00F4               	movwf	??_Lcd_Init
  4053  0EF6                     u2587:	
  4054  0EF6  0BF4               	decfsz	??_Lcd_Init,f
  4055  0EF7  2EF6               	goto	u2587
  4056  0EF8  0BF5               	decfsz	??_Lcd_Init+1,f
  4057  0EF9  2EF6               	goto	u2587
  4058  0EFA                     l1399:	
  4059                           
  4060                           ;./lcd.h: 68:   Lcd_Cmd(0x03);
  4061  0EFA  3003               	movlw	3
  4062  0EFB  120A  158A  25CF  120A  158A  	fcall	_Lcd_Cmd
  4063  0F00                     l1401:	
  4064                           
  4065                           ;./lcd.h: 69:  _delay((unsigned long)((11)*(4000000/4000.0)));
  4066  0F00  300F               	movlw	15
  4067  0F01  00F5               	movwf	??_Lcd_Init+1
  4068  0F02  3047               	movlw	71
  4069  0F03  00F4               	movwf	??_Lcd_Init
  4070  0F04                     u2597:	
  4071  0F04  0BF4               	decfsz	??_Lcd_Init,f
  4072  0F05  2F04               	goto	u2597
  4073  0F06  0BF5               	decfsz	??_Lcd_Init+1,f
  4074  0F07  2F04               	goto	u2597
  4075  0F08  2F09               	nop2
  4076                           
  4077                           ;./lcd.h: 70:   Lcd_Cmd(0x03);
  4078  0F09  3003               	movlw	3
  4079  0F0A  120A  158A  25CF  120A  158A  	fcall	_Lcd_Cmd
  4080                           
  4081                           ;./lcd.h: 72:   Lcd_Cmd(0x02);
  4082  0F0F  3002               	movlw	2
  4083  0F10  120A  158A  25CF  120A  158A  	fcall	_Lcd_Cmd
  4084                           
  4085                           ;./lcd.h: 73:   Lcd_Cmd(0x02);
  4086  0F15  3002               	movlw	2
  4087  0F16  120A  158A  25CF  120A  158A  	fcall	_Lcd_Cmd
  4088                           
  4089                           ;./lcd.h: 74:   Lcd_Cmd(0x08);
  4090  0F1B  3008               	movlw	8
  4091  0F1C  120A  158A  25CF  120A  158A  	fcall	_Lcd_Cmd
  4092                           
  4093                           ;./lcd.h: 75:   Lcd_Cmd(0x00);
  4094  0F21  3000               	movlw	0
  4095  0F22  120A  158A  25CF  120A  158A  	fcall	_Lcd_Cmd
  4096                           
  4097                           ;./lcd.h: 76:   Lcd_Cmd(0x0C);
  4098  0F27  300C               	movlw	12
  4099  0F28  120A  158A  25CF  120A  158A  	fcall	_Lcd_Cmd
  4100                           
  4101                           ;./lcd.h: 77:   Lcd_Cmd(0x00);
  4102  0F2D  3000               	movlw	0
  4103  0F2E  120A  158A  25CF  120A  158A  	fcall	_Lcd_Cmd
  4104                           
  4105                           ;./lcd.h: 78:   Lcd_Cmd(0x06);
  4106  0F33  3006               	movlw	6
  4107  0F34  120A  158A  25CF  120A  158A  	fcall	_Lcd_Cmd
  4108  0F39                     l66:	
  4109  0F39  0008               	return
  4110  0F3A                     __end_of_Lcd_Init:	
  4111                           
  4112                           	psect	text12
  4113  0DC2                     __ptext12:	
  4114 ;; *************** function _Lcd_Clear *****************
  4115 ;; Defined at:
  4116 ;;		line 35 in file "./lcd.h"
  4117 ;; Parameters:    Size  Location     Type
  4118 ;;		None
  4119 ;; Auto vars:     Size  Location     Type
  4120 ;;		None
  4121 ;; Return value:  Size  Location     Type
  4122 ;;                  2   56[None  ] int 
  4123 ;; Registers used:
  4124 ;;		wreg, status,2, status,0, pclath, cstack
  4125 ;; Tracked objects:
  4126 ;;		On entry : 0/0
  4127 ;;		On exit  : 0/0
  4128 ;;		Unchanged: 0/0
  4129 ;; Data sizes:     COMMON   BANK0   BANK1   BANK3   BANK2
  4130 ;;      Params:         0       0       0       0       0
  4131 ;;      Locals:         0       0       0       0       0
  4132 ;;      Temps:          0       0       0       0       0
  4133 ;;      Totals:         0       0       0       0       0
  4134 ;;Total ram usage:        0 bytes
  4135 ;; Hardware stack levels used:    1
  4136 ;; Hardware stack levels required when called:    2
  4137 ;; This function calls:
  4138 ;;		_Lcd_Cmd
  4139 ;; This function is called by:
  4140 ;;		_main
  4141 ;; This function uses a non-reentrant model
  4142 ;;
  4143                           
  4144                           
  4145                           ;psect for function _Lcd_Clear
  4146  0DC2                     _Lcd_Clear:	
  4147  0DC2                     l1371:	
  4148                           ;incstack = 0
  4149                           ; Regs used in _Lcd_Clear: [wreg+status,2+status,0+pclath+cstack]
  4150                           
  4151                           
  4152                           ;./lcd.h: 37:  Lcd_Cmd(0);
  4153  0DC2  3000               	movlw	0
  4154  0DC3  120A  158A  25CF  120A  158A  	fcall	_Lcd_Cmd
  4155                           
  4156                           ;./lcd.h: 38:  Lcd_Cmd(1);
  4157  0DC8  3001               	movlw	1
  4158  0DC9  120A  158A  25CF  120A  158A  	fcall	_Lcd_Cmd
  4159  0DCE                     l57:	
  4160  0DCE  0008               	return
  4161  0DCF                     __end_of_Lcd_Clear:	
  4162                           
  4163                           	psect	text13
  4164  0DCF                     __ptext13:	
  4165 ;; *************** function _Lcd_Cmd *****************
  4166 ;; Defined at:
  4167 ;;		line 26 in file "./lcd.h"
  4168 ;; Parameters:    Size  Location     Type
  4169 ;;  a               1    wreg     unsigned char 
  4170 ;; Auto vars:     Size  Location     Type
  4171 ;;  a               1    3[COMMON] unsigned char 
  4172 ;; Return value:  Size  Location     Type
  4173 ;;                  1    wreg      void 
  4174 ;; Registers used:
  4175 ;;		wreg, status,2, status,0, pclath, cstack
  4176 ;; Tracked objects:
  4177 ;;		On entry : 0/0
  4178 ;;		On exit  : 0/0
  4179 ;;		Unchanged: 0/0
  4180 ;; Data sizes:     COMMON   BANK0   BANK1   BANK3   BANK2
  4181 ;;      Params:         0       0       0       0       0
  4182 ;;      Locals:         1       0       0       0       0
  4183 ;;      Temps:          2       0       0       0       0
  4184 ;;      Totals:         3       0       0       0       0
  4185 ;;Total ram usage:        3 bytes
  4186 ;; Hardware stack levels used:    1
  4187 ;; Hardware stack levels required when called:    1
  4188 ;; This function calls:
  4189 ;;		_Lcd_Port
  4190 ;; This function is called by:
  4191 ;;		_Lcd_Clear
  4192 ;;		_Lcd_Set_Cursor
  4193 ;;		_Lcd_Init
  4194 ;; This function uses a non-reentrant model
  4195 ;;
  4196                           
  4197                           
  4198                           ;psect for function _Lcd_Cmd
  4199  0DCF                     _Lcd_Cmd:	
  4200                           
  4201                           ;incstack = 0
  4202                           ; Regs used in _Lcd_Cmd: [wreg+status,2+status,0+pclath+cstack]
  4203                           ;Lcd_Cmd@a stored from wreg
  4204  0DCF  00F3               	movwf	Lcd_Cmd@a
  4205  0DD0                     l1315:	
  4206                           
  4207                           ;./lcd.h: 26: void Lcd_Cmd(char a);./lcd.h: 27: {;./lcd.h: 28:  RD2 = 0;
  4208  0DD0  1283               	bcf	3,5	;RP0=0, select bank0
  4209  0DD1  1303               	bcf	3,6	;RP1=0, select bank0
  4210  0DD2  1108               	bcf	8,2	;volatile
  4211  0DD3                     l1317:	
  4212                           
  4213                           ;./lcd.h: 29:  Lcd_Port(a);
  4214  0DD3  0873               	movf	Lcd_Cmd@a,w
  4215  0DD4  120A  158A  25E9  120A  158A  	fcall	_Lcd_Port
  4216  0DD9                     l1319:	
  4217                           
  4218                           ;./lcd.h: 30:  RD3 = 1;
  4219  0DD9  1283               	bcf	3,5	;RP0=0, select bank0
  4220  0DDA  1303               	bcf	3,6	;RP1=0, select bank0
  4221  0DDB  1588               	bsf	8,3	;volatile
  4222  0DDC                     l1321:	
  4223                           
  4224                           ;./lcd.h: 31:         _delay((unsigned long)((4)*(4000000/4000.0)));
  4225  0DDC  3006               	movlw	6
  4226  0DDD  00F2               	movwf	??_Lcd_Cmd+1
  4227  0DDE  3030               	movlw	48
  4228  0DDF  00F1               	movwf	??_Lcd_Cmd
  4229  0DE0                     u2607:	
  4230  0DE0  0BF1               	decfsz	??_Lcd_Cmd,f
  4231  0DE1  2DE0               	goto	u2607
  4232  0DE2  0BF2               	decfsz	??_Lcd_Cmd+1,f
  4233  0DE3  2DE0               	goto	u2607
  4234  0DE4  0000               	nop
  4235  0DE5                     l1323:	
  4236                           
  4237                           ;./lcd.h: 32:         RD3 = 0;
  4238  0DE5  1283               	bcf	3,5	;RP0=0, select bank0
  4239  0DE6  1303               	bcf	3,6	;RP1=0, select bank0
  4240  0DE7  1188               	bcf	8,3	;volatile
  4241  0DE8                     l54:	
  4242  0DE8  0008               	return
  4243  0DE9                     __end_of_Lcd_Cmd:	
  4244                           
  4245                           	psect	text14
  4246  0DE9                     __ptext14:	
  4247 ;; *************** function _Lcd_Port *****************
  4248 ;; Defined at:
  4249 ;;		line 4 in file "./lcd.h"
  4250 ;; Parameters:    Size  Location     Type
  4251 ;;  a               1    wreg     unsigned char 
  4252 ;; Auto vars:     Size  Location     Type
  4253 ;;  a               1    0[COMMON] unsigned char 
  4254 ;; Return value:  Size  Location     Type
  4255 ;;                  1    wreg      void 
  4256 ;; Registers used:
  4257 ;;		wreg
  4258 ;; Tracked objects:
  4259 ;;		On entry : 0/0
  4260 ;;		On exit  : 0/0
  4261 ;;		Unchanged: 0/0
  4262 ;; Data sizes:     COMMON   BANK0   BANK1   BANK3   BANK2
  4263 ;;      Params:         0       0       0       0       0
  4264 ;;      Locals:         1       0       0       0       0
  4265 ;;      Temps:          0       0       0       0       0
  4266 ;;      Totals:         1       0       0       0       0
  4267 ;;Total ram usage:        1 bytes
  4268 ;; Hardware stack levels used:    1
  4269 ;; This function calls:
  4270 ;;		Nothing
  4271 ;; This function is called by:
  4272 ;;		_Lcd_Cmd
  4273 ;;		_Lcd_Init
  4274 ;;		_Lcd_Write_Char
  4275 ;; This function uses a non-reentrant model
  4276 ;;
  4277                           
  4278                           
  4279                           ;psect for function _Lcd_Port
  4280  0DE9                     _Lcd_Port:	
  4281                           
  4282                           ;incstack = 0
  4283                           ; Regs used in _Lcd_Port: [wreg]
  4284                           ;Lcd_Port@a stored from wreg
  4285  0DE9  00F0               	movwf	Lcd_Port@a
  4286  0DEA                     l1305:	
  4287                           
  4288                           ;./lcd.h: 4: void Lcd_Port(char a);./lcd.h: 5: {;./lcd.h: 6:  if(a & 1)
  4289  0DEA  1C70               	btfss	Lcd_Port@a,0
  4290  0DEB  2DED               	goto	u1281
  4291  0DEC  2DEE               	goto	u1280
  4292  0DED                     u1281:	
  4293  0DED  2DF2               	goto	l43
  4294  0DEE                     u1280:	
  4295  0DEE                     l1307:	
  4296                           
  4297                           ;./lcd.h: 7:   RD4 = 1;
  4298  0DEE  1283               	bcf	3,5	;RP0=0, select bank0
  4299  0DEF  1303               	bcf	3,6	;RP1=0, select bank0
  4300  0DF0  1608               	bsf	8,4	;volatile
  4301  0DF1  2DF5               	goto	l44
  4302  0DF2                     l43:	
  4303                           ;./lcd.h: 8:  else
  4304                           
  4305                           
  4306                           ;./lcd.h: 9:   RD4 = 0;
  4307  0DF2  1283               	bcf	3,5	;RP0=0, select bank0
  4308  0DF3  1303               	bcf	3,6	;RP1=0, select bank0
  4309  0DF4  1208               	bcf	8,4	;volatile
  4310  0DF5                     l44:	
  4311                           
  4312                           ;./lcd.h: 11:  if(a & 2)
  4313  0DF5  1CF0               	btfss	Lcd_Port@a,1
  4314  0DF6  2DF8               	goto	u1291
  4315  0DF7  2DF9               	goto	u1290
  4316  0DF8                     u1291:	
  4317  0DF8  2DFB               	goto	l45
  4318  0DF9                     u1290:	
  4319  0DF9                     l1309:	
  4320                           
  4321                           ;./lcd.h: 12:   RD5 = 1;
  4322  0DF9  1688               	bsf	8,5	;volatile
  4323  0DFA  2DFC               	goto	l46
  4324  0DFB                     l45:	
  4325                           ;./lcd.h: 13:  else
  4326                           
  4327                           
  4328                           ;./lcd.h: 14:   RD5 = 0;
  4329  0DFB  1288               	bcf	8,5	;volatile
  4330  0DFC                     l46:	
  4331                           
  4332                           ;./lcd.h: 16:  if(a & 4)
  4333  0DFC  1D70               	btfss	Lcd_Port@a,2
  4334  0DFD  2DFF               	goto	u1301
  4335  0DFE  2E00               	goto	u1300
  4336  0DFF                     u1301:	
  4337  0DFF  2E02               	goto	l47
  4338  0E00                     u1300:	
  4339  0E00                     l1311:	
  4340                           
  4341                           ;./lcd.h: 17:   RD6 = 1;
  4342  0E00  1708               	bsf	8,6	;volatile
  4343  0E01  2E03               	goto	l48
  4344  0E02                     l47:	
  4345                           ;./lcd.h: 18:  else
  4346                           
  4347                           
  4348                           ;./lcd.h: 19:   RD6 = 0;
  4349  0E02  1308               	bcf	8,6	;volatile
  4350  0E03                     l48:	
  4351                           
  4352                           ;./lcd.h: 21:  if(a & 8)
  4353  0E03  1DF0               	btfss	Lcd_Port@a,3
  4354  0E04  2E06               	goto	u1311
  4355  0E05  2E07               	goto	u1310
  4356  0E06                     u1311:	
  4357  0E06  2E09               	goto	l49
  4358  0E07                     u1310:	
  4359  0E07                     l1313:	
  4360                           
  4361                           ;./lcd.h: 22:   RD7 = 1;
  4362  0E07  1788               	bsf	8,7	;volatile
  4363  0E08  2E0A               	goto	l51
  4364  0E09                     l49:	
  4365                           ;./lcd.h: 23:  else
  4366                           
  4367                           
  4368                           ;./lcd.h: 24:   RD7 = 0;
  4369  0E09  1388               	bcf	8,7	;volatile
  4370  0E0A                     l51:	
  4371  0E0A  0008               	return
  4372  0E0B                     __end_of_Lcd_Port:	
  4373  007E                     btemp	set	126	;btemp
  4374  007E                     wtemp0	set	126


Data Sizes:
    Strings     46
    Constant    0
    Data        0
    BSS         7
    Persistent  0
    Stack       0

Auto Spaces:
    Space          Size  Autos    Used
    COMMON           14     14      14
    BANK0            80     66      73
    BANK1            80      0       0
    BANK3            96      0       0
    BANK2            96      0       0

Pointer List with Targets:

    Lcd_Write_String@a	PTR unsigned char  size(1) Largest target is 14
		 -> STR_4(CODE[10]), STR_3(CODE[14]), STR_2(CODE[10]), STR_1(CODE[12]), 


Critical Paths under _main in COMMON

    _main->___awmod
    _main->___xxtofl
    ___fltol->___xxtofl
    ___flmul->___xxtofl
    ___fldiv->___xxtofl
    ___awmod->___awdiv
    _Lcd_Write_String->_Lcd_Write_Char
    _Lcd_Write_Char->_Lcd_Port
    _Lcd_Set_Cursor->_Lcd_Cmd
    _Lcd_Init->_Lcd_Cmd
    _Lcd_Clear->_Lcd_Cmd
    _Lcd_Cmd->_Lcd_Port

Critical Paths under _main in BANK0

    _main->___fltol
    ___fltol->___fldiv
    ___fldiv->___flmul

Critical Paths under _main in BANK1

    None.

Critical Paths under _main in BANK3

    None.

Critical Paths under _main in BANK2

    None.

Call Graph Tables:

 ---------------------------------------------------------------------------------
 (Depth) Function   	        Calls       Base Space   Used Autos Params    Refs
 ---------------------------------------------------------------------------------
 (0) _main                                                 3     3      0    7503
                                             63 BANK0      3     3      0
                          _Lcd_Clear
                           _Lcd_Init
                     _Lcd_Set_Cursor
                     _Lcd_Write_Char
                   _Lcd_Write_String
                            ___awdiv
                            ___awmod
                            ___fldiv
                            ___flmul
                            ___fltol
                           ___xxtofl
 ---------------------------------------------------------------------------------
 (1) ___xxtofl                                            14    10      4     398
                                              0 COMMON    14    10      4
 ---------------------------------------------------------------------------------
 (1) ___fltol                                             11     7      4     305
                                             52 BANK0     11     7      4
                            ___fldiv (ARG)
                            ___flmul (ARG)
                           ___xxtofl (ARG)
 ---------------------------------------------------------------------------------
 (1) ___flmul                                             26    18      8    2417
                                              0 BANK0     26    18      8
                          __Umul8_16
                           ___xxtofl (ARG)
 ---------------------------------------------------------------------------------
 (2) __Umul8_16                                            9     7      2     799
                                              0 COMMON     9     7      2
 ---------------------------------------------------------------------------------
 (1) ___fldiv                                             26    18      8    1273
                                             26 BANK0     26    18      8
                            ___flmul (ARG)
                           ___xxtofl (ARG)
 ---------------------------------------------------------------------------------
 (1) ___awmod                                              7     3      4     752
                                              9 COMMON     5     1      4
                                              0 BANK0      2     2      0
                            ___awdiv (ARG)
 ---------------------------------------------------------------------------------
 (1) ___awdiv                                              9     5      4     604
                                              0 COMMON     9     5      4
 ---------------------------------------------------------------------------------
 (1) _Lcd_Write_String                                     3     3      0     492
                                              9 COMMON     3     3      0
                     _Lcd_Write_Char
 ---------------------------------------------------------------------------------
 (2) _Lcd_Write_Char                                       8     8      0     270
                                              1 COMMON     8     8      0
                           _Lcd_Port
 ---------------------------------------------------------------------------------
 (1) _Lcd_Set_Cursor                                       7     6      1     684
                                              4 COMMON     7     6      1
                            _Lcd_Cmd
 ---------------------------------------------------------------------------------
 (1) _Lcd_Init                                             2     2      0     198
                                              4 COMMON     2     2      0
                            _Lcd_Cmd
                           _Lcd_Port
 ---------------------------------------------------------------------------------
 (1) _Lcd_Clear                                            0     0      0     110
                            _Lcd_Cmd
 ---------------------------------------------------------------------------------
 (2) _Lcd_Cmd                                              3     3      0     110
                                              1 COMMON     3     3      0
                           _Lcd_Port
 ---------------------------------------------------------------------------------
 (3) _Lcd_Port                                             1     1      0      88
                                              0 COMMON     1     1      0
 ---------------------------------------------------------------------------------
 Estimated maximum stack depth 3
 ---------------------------------------------------------------------------------

 Call Graph Graphs:

 _main (ROOT)
   _Lcd_Clear
     _Lcd_Cmd
       _Lcd_Port
   _Lcd_Init
     _Lcd_Cmd
       _Lcd_Port
     _Lcd_Port
   _Lcd_Set_Cursor
     _Lcd_Cmd
       _Lcd_Port
   _Lcd_Write_Char
     _Lcd_Port
   _Lcd_Write_String
     _Lcd_Write_Char
       _Lcd_Port
   ___awdiv
   ___awmod
     ___awdiv (ARG)
   ___fldiv
     ___flmul (ARG)
       __Umul8_16
       ___xxtofl (ARG)
     ___xxtofl (ARG)
   ___flmul
     __Umul8_16
     ___xxtofl (ARG)
   ___fltol
     ___fldiv (ARG)
       ___flmul (ARG)
         __Umul8_16
         ___xxtofl (ARG)
       ___xxtofl (ARG)
     ___flmul (ARG)
       __Umul8_16
       ___xxtofl (ARG)
     ___xxtofl (ARG)
   ___xxtofl

 Address spaces:
Name               Size   Autos  Total    Cost      Usage
BITCOMMON            E      0       0       0        0.0%
EEDATA             100      0       0       0        0.0%
NULL                 0      0       0       0        0.0%
CODE                 0      0       0       0        0.0%
COMMON               E      E       E       1      100.0%
BITSFR0              0      0       0       1        0.0%
SFR0                 0      0       0       1        0.0%
BITSFR1              0      0       0       2        0.0%
SFR1                 0      0       0       2        0.0%
STACK                0      0       0       2        0.0%
ABS                  0      0      57       3        0.0%
BITBANK0            50      0       0       4        0.0%
BITSFR3              0      0       0       4        0.0%
SFR3                 0      0       0       4        0.0%
BANK0               50     42      49       5       91.3%
BITSFR2              0      0       0       5        0.0%
SFR2                 0      0       0       5        0.0%
BITBANK1            50      0       0       6        0.0%
BANK1               50      0       0       7        0.0%
BITBANK3            60      0       0       8        0.0%
BANK3               60      0       0       9        0.0%
BITBANK2            60      0       0      10        0.0%
BANK2               60      0       0      11        0.0%
DATA                 0      0      57      12        0.0%


Microchip Technology PIC Macro Assembler V2.10 build 88905656 
Symbol Table                                                                                   Tue Sep 03 04:15:55 2019

              ___fldiv@aexp 0053                ___fldiv@bexp 0052                           pc 0002  
              ___fldiv@sign 004B                 __CFG_CP$OFF 0000                          l51 0E0A  
                        l43 0DF2                          l44 0DF5                          l45 0DFB  
                        l46 0DFC                          l54 0DE8                          l70 0F71  
                        l47 0E02                          l63 0E81                          l71 0F81  
                        l48 0E03                          l72 0F95                          l49 0E09  
                        l57 0DCE                          l73 0F98                          l66 0F39  
                        l69 0F5D                          l79 0E2F                          l95 01B1  
                        l97 01B5                          l98 01B6                          _d1 0066  
                        _d2 0065                          _d3 0064                ___awdiv@sign 0076  
                        fsr 0004         __Umul8_16@word_mpld 0076                         l100 01BA  
                       l101 0223                         l344 0FFF                         l540 0311  
                       l620 0161                         l357 0EDC                         l542 0491  
                       l631 012B                         l384 0092                         l632 0137  
                       l624 010F                         l377 00A7                         l562 0475  
                       l618 00CA                         l387 00A7                         l564 0485  
                       l556 0403                         l580 07F2                         l637 0019  
                       l639 002B                         l592 07E6                         l586 075E  
                       _RA0 0028                         _RB1 0031                         _RB2 0032  
                       _RD2 0042                         _RE0 0048                         _RD3 0043  
                       _RD4 0044                         _RD5 0045                         _RD6 0046  
                       _RD7 0047                __CFG_CPD$OFF 0000                         fsr0 0004  
              ___awmod@sign 0021                __CFG_FOSC$HS 0000                ___flmul@aexp 0032  
              ___flmul@bexp 0033                ___flmul@sign 002D                ___flmul@temp 0038  
              ___flmul@prod 0034                __CFG_LVP$OFF 0000                ___fltol@exp1 005E  
                      l1311 0E00                        l1313 0E07                        l1305 0DEA  
                      l1321 0DDC                        l1401 0F00                        l1307 0DEE  
                      l1323 0DE5                        l1315 0DD0                        l1331 0F56  
                      l1403 0E0C                        l1411 0F99                        l1309 0DF9  
                      l1317 0DD3                        l1341 0F64                        l1333 0F59  
                      l1325 0F3B                        l1405 0E0F                        l1421 0FA9  
                      l1413 0F9A                        l1501 0057                        l1319 0DD9  
                      l1343 0F74                        l1327 0F45                        l1407 0E1C  
                      l1431 0FBD                        l1423 0FAE                        l1415 0F9E  
                      l1503 0058                        l1353 0F82                        l1345 0F7A  
                      l1329 0F48                        l1409 0E22                        l1441 0FE3  
                      l1433 0FC4                        l1425 0FB2                        l1417 0FA3  
                      l1601 0388                        l1361 000F                        l1505 0060  
                      l1371 0DC2                        l1355 0F88                        l1347 0F7D  
                      l1339 0F5E                        l1451 0FFB                        l1443 0FE4  
                      l1435 0FC8                        l1427 0FB4                        l1419 0FA5  
                      l1603 0391                        l1611 03B6                        l1531 02BC  
                      l1363 0013                        l1523 0087                        l1515 006E  
                      l1507 0062                        l1381 0E52                        l1373 0E31  
                      l1445 0FEB                        l1437 0FCC                        l1429 0FBA  
                      l1461 0E8E                        l1621 03D3                        l1613 03BC  
                      l1605 03A3                        l1541 02D1                        l1533 02C2  
                      l1365 0022                        l1357 0006                        l1701 04DA  
                      l1525 0097                        l1509 0066                        l1517 0080  
                      l1391 0E7B                        l1375 0E36                        l1383 0E59  
                      l1439 0FDD                        l1447 0FF1                        l1471 0EA2  
                      l1463 0E90                        l1455 0E82                        l1631 03E8  
                      l1623 03D4                        l1615 03C4                        l1607 03A4  
                      l1551 02E9                        l1543 02D9                        l1535 02C6  
                      l1367 0027                        l1359 0008                        l1711 04F6  
                      l1703 04E2                        l1527 009C                        l1393 0EDD  
                      l1385 0E5F                        l1377 0E47                        l1449 0FF6  
                      l1481 0EC1                        l1473 0EA9                        l1465 0E94  
                      l1457 0E85                        l1641 040D                        l1633 03EC  
                      l1625 03DD                        l1617 03C6                        l1609 03B2  
                      l1561 02FE                        l1553 02EF                        l1545 02DA  
                      l1537 02C7                        l1529 02B5                        l1801 07DA  
                      l1721 0539                        l1705 04E4                        l1395 0EE3  
                      l1387 0E70                        l1379 0E4C                        l1483 0EC8  
                      l1475 0EAD                        l1467 0E99                        l1459 0E89  
                      l1651 044B                        l1643 041B                        l1635 0400  
                      l1619 03CF                        l1627 03E3                        l1571 0325  
                      l1563 0306                        l1555 02F3                        l1539 02CC  
                      l1547 02DC                        l1803 07DE                        l1731 05C2  
                      l1723 0555                        l1715 04FF                        l1707 04EC  
                      l1811 00A9                        l1397 0EEC                        l1389 0E75  
                      l1477 0EB1                        l1469 0E9F                        l1485 0ECE  
                      l1661 047B                        l1653 0459                        l1645 041F  
                      l1629 03E7                        l1573 0329                        l1565 0307  
                      l1557 02F4                        l1549 02E4                        l1805 07DF  
                      l1741 0635                        l1733 05D2                        l1725 0581  
                      l1717 050F                        l1709 04F1                        l1493 002C  
                      l1813 00AE                        l1901 0227                        l1399 0EFA  
                      l1487 0ED3                        l1479 0EBB                        l1663 047F  
                      l1655 0468                        l1647 0438                        l1639 0408  
                      l1591 036A                        l1583 0340                        l1559 02F9  
                      l1567 0309                        l1807 07EA                        l1751 06E2  
                      l1743 0652                        l1735 05EF                        l1727 059D  
                      l1719 051C                        l1671 0492                        l1495 0039  
                      l1831 00F8                        l1823 00DB                        l1815 00B2  
                      l1911 02A8                        l1903 0282                        l1489 0ED8  
                      l1665 0481                        l1657 046C                        l1649 043E  
                      l1593 036C                        l1585 0352                        l1569 0319  
                      l1577 0332                        l1761 072E                        l1753 070A  
                      l1745 067F                        l1737 05FF                        l1729 05B9  
                      l1681 04A9                        l1673 0499                        l1841 012F  
                      l1833 0106                        l1825 00E0                        l1817 00C2  
                      l1905 0288                        l1659 0474                        l1595 0371  
                      l1587 035A                        l1579 0337                        l1771 0743  
                      l1763 072F                        l1755 0713                        l1747 068F  
                      l1739 061C                        l1691 04C5                        l1683 04AE  
                      l1675 049F                        l1499 0042                        l1851 0159  
                      l1843 0139                        l1835 0116                        l1827 00ED  
                      l1819 00D2                        l1907 0296                        l1597 0383  
                      l1589 0362                        l1781 0768                        l1773 0747  
                      l1765 0738                        l1757 0721                        l1749 06BC  
                      l1693 04CB                        l1685 04B6                        l1677 04A3  
                      l1845 014F                        l1837 0121                        l1829 00F4  
                      l1909 029F                        l1861 0168                        l1599 0387  
                      l1791 07A6                        l1783 0776                        l1775 075B  
                      l1759 072A                        l1767 073E                        l1695 04CF  
                      l1687 04B8                        l1679 04A4                        l1847 0154  
                      l1839 0125                        l1871 0173                        l1863 0169  
                      l1855 0162                        l1793 07B1                        l1785 077A  
                      l1769 0742                        l1697 04D0                        l1689 04C0  
                      l1849 0158                        l1881 019D                        l1873 017B  
                      l1865 016A                        l1857 0166                        l1795 07C0  
                      l1787 0793                        l1779 0763                        l1699 04D5  
                      l1891 01AE                        l1883 01A2                        l1875 0181  
                      l1867 016F                        l1859 0167                        l1797 07CA  
                      l1789 0799                        l1893 01BB                        l1885 01A5  
                      l1877 0189                        l1869 0172                        l1799 07CC  
                      l1895 01BF                        l1887 01A6                        l1879 018F  
                      l1897 0211                        l1889 01A7                        l1899 021E  
                      STR_1 0814                        STR_2 082A                        STR_3 0806  
                      STR_4 0820                        u2000 047F                        u2001 047E  
                      u2010 04A3                        u2011 04A2                        u1300 0E00  
                      u2020 04A9                        u1301 0DFF                        u2101 0563  
                      u2021 04A8                        u1310 0E07                        u2102 056A  
                      u2030 04AE                        u1311 0E06                        u2111 058F  
                      u2103 0571                        u2031 04AD                        u1400 0E5F  
                      u2200 06C8                        u2112 0596                        u2040 04CF  
                      u1401 0E5E                        u2121 05AB                        u2113 059D  
                      u2041 04CE                        u1330 0F71                        u2122 05B2  
                      u2050 04D5                        u1331 0F70                        u2211 06D4  
                      u2123 05B9                        u2051 04D4                        u1340 0F95  
                      u1420 0E2F                        u2300 075B                        u2220 06F0  
                      u2212 06DB                        u2060 04DA                        u1341 0F94  
                      u1325 0F4B                        u1421 0E2E                        u2301 075A  
                      u2213 06E2                        u2205 06C3                        u2141 05E1  
                      u2061 04D9                        u1510 0FF1                        u1430 0F9E  
                      u1350 0013                        u2310 0762                        u2142 05E8  
                      u2070 04F1                        u1415 0E67                        u1335 0F6D  
                      u1511 0FF0                        u1431 0F9D                        u1351 0012  
                      u2311 0761                        u2231 06FC                        u2151 060E  
                      u2143 05EF                        u2135 05BB                        u2071 04F0  
                      u1280 0DEE                        u1520 0FF6                        u1440 0FA9  
                      u1600 0ECE                        u2320 0768                        u2232 0703  
                      u2152 0615                        u2080 04F6                        u2400 00D2  
                      u1281 0DED                        u1345 0F91                        u1521 0FF5  
                      u1505 0FE5                        u1441 0FA8                        u1601 0ECD  
                      u2321 0767                        u2233 070A                        u2225 06EB  
                      u2153 061C                        u2081 04F5                        u2401 00D1  
                      u1290 0DF9                        u1450 0FBA                        u1610 0ED3  
                      u1530 0E89                        u1370 0027                        u2330 077A  
                      u1291 0DF8                        u1451 0FB9                        u1611 0ED2  
                      u1531 0E88                        u1371 0026                        u2331 0779  
                      u2171 0644                        u2091 0547                        u1380 0E36  
                      u1540 0E94                        u2340 0789                        u2260 072E  
                      u2172 064B                        u2092 054E                        u1700 0097  
                      u1620 0039                        u2500 0154                        u2420 00F3  
                      u1381 0E35                        u1541 0E93                        u1365 001A  
                      u2261 072D                        u2245 070C                        u2181 0671  
                      u2173 0652                        u2165 061E                        u2093 0555  
                      u1701 0096                        u1621 0038                        u2501 0153  
                      u2421 00F2                        u1470 0FCC                        u1550 0E9F  
                      u2350 07A6                        u2182 0678                        u1710 009C  
                      u1630 0050                        u2510 0158                        u1471 0FCB  
                      u1551 0E9E                        u2351 07A5                        u2255 0723  
                      u2191 069E                        u2183 067F                        u1711 009B  
                      u2511 0157                        u2415 00E5                        u1800 0371  
                      u1720 02C6                        u2360 07C0                        u2280 0742  
                      u2192 06A5                        u1640 0066                        u2440 0115  
                      u2520 01B5                        u1465 0FBE                        u1801 0370  
                      u1721 02C5                        u2361 07BF                        u2345 0784  
                      u2281 0741                        u2193 06AC                        u1641 0065  
                      u2441 0114                        u2521 01B4                        u1490 0FDD  
                      u1570 0EB1                        u1730 02CC                        u2370 07DE  
                      u2290 0747                        u1650 006D                        u2530 01BA  
                      u1395 0E3E                        u1491 0FDC                        u1571 0EB0  
                      u1731 02CB                        u2371 07DD                        u2355 07A2  
                      u2291 0746                        u2275 0731                        u1651 006C  
                      u1635 004B                        u2435 0107                        u2531 01B9  
                      u1580 0EBB                        u1740 02D1                        u2460 0125  
                      u2380 00AE                        u2540 021E                        u1485 0FCD  
                      u1581 0EBA                        u1565 0EA3                        u1741 02D0  
                      u2365 07BC                        u2461 0124                        u2381 00AD  
                      u2541 021D                        u1910 03E7                        u1830 0387  
                      u1750 02F3                        u1670 007F                        u2470 012B  
                      u2390 00B2                        u2607 0DE0                        u1495 0FD9  
                      u1911 03E6                        u1831 0386                        u1815 0373  
                      u1751 02F2                        u1671 007E                        u2471 012A  
                      u2455 011A                        u2391 00B1                        u1920 03EC  
                      u1760 02F9                        u1680 0086                        u2480 012F  
                      u1585 0EB7                        u1921 03EB                        u1905 03D6  
                      u1825 037C                        u1761 02F8                        u1681 0085  
                      u1665 006F                        u2481 012E                        u2545 021A  
                      u1930 0400                        u1850 03A3                        u1770 02FE  
                      u2490 0144                        u1595 0EC2                        u1931 03FF  
                      u1851 03A2                        u1771 02FD                        u1940 0407  
                      u1860 03BC                        u1780 0319                        u1941 0406  
                      u1861 03BB                        u1845 038A                        u1781 0318  
                      u2557 0197                        u1950 040D                        u1870 03C4  
                      u1790 0337                        u1951 040C                        u1871 03C3  
                      u1855 039F                        u1791 0336                        u1695 0089  
                      u2495 013F                        u2567 01AB                        u1960 041F  
                      u2577 0EE7                        u1961 041E                        u1970 042E  
                      u1890 03D3                        u2587 0EF6                        u1891 03D2  
                      u1980 044B                        u2597 0F04                        u1981 044A  
                      u1885 03C8                        u1990 0468                        u1991 0467  
                      u1975 0429                        u1985 0447                        u1995 0464  
              __CFG_WRT$OFF 0000           ?_Lcd_Write_String 0070                        _main 0162  
                      btemp 007E               __CFG_BOREN$ON 0000                        start 0000  
        ??_Lcd_Write_String 0079             ___fldiv@new_exp 004C             __end_of_Lcd_Cmd 0DE9  
             ___fltol@sign1 005D                       ?_main 0070             __end_of___fldiv 0492  
           __end_of___awdiv 1000               __CFG_WDTE$OFF 0000             __end_of___awmod 0EDD  
           __end_of___flmul 07F3             __end_of___fltol 00A8             ___awdiv@divisor 0070  
           ___awdiv@counter 0075                       _TMR1H 000F                       _TMR1L 000E  
   __size_of_Lcd_Set_Cursor 0052                       _TRISD 0088                       pclath 000A  
                     status 0003                       wtemp0 007E            __end_of_Lcd_Init 0F3A  
          __end_of_Lcd_Port 0E0B             __initialization 07F3                __end_of_main 02B5  
                    ??_main 005F          __size_of_Lcd_Clear 000D            ___awdiv@dividend 0072  
                 ??_Lcd_Cmd 0071                      _TMR1ON 0080     __size_of_Lcd_Write_Char 005F  
                    _TRISA0 0428                      _TRISB1 0431                      _TRISB2 0432  
                    _TRISE0 0448            __end_of___xxtofl 0162              __CFG_PWRTE$OFF 0000  
                 ??___fldiv 0042                   ??___awdiv 0074                   ??___awmod 007D  
                 ??___flmul 0028                   ??___fltol 0058            ___awdiv@quotient 0077  
           ___awmod@divisor 0079             ___awmod@counter 0020  Lcd_Write_Char@Upper_Nibble 0073  
        __size_of__Umul8_16 0027             Lcd_Set_Cursor@a 0077             Lcd_Set_Cursor@b 0074  
           Lcd_Set_Cursor@y 0079             Lcd_Set_Cursor@z 0078                ___xxtofl@arg 007A  
              ___xxtofl@exp 0079                ___xxtofl@val 0070     __end_of__initialization 07FC  
         __end_of_Lcd_Clear 0DCF                  ___fltol@f1 0054              __pcstackCOMMON 0070  
            _Lcd_Set_Cursor 0E30                   ?_Lcd_Init 0070                   ?_Lcd_Port 0070  
                __pbssBANK0 0062           __end_of__Umul8_16 002C                  __pmaintext 0162  
 __size_of_Lcd_Write_String 0025      __end_of_Lcd_Set_Cursor 0E82                   ?___xxtofl 0070  
                ??_Lcd_Init 0074                  ??_Lcd_Port 0070                  __stringtab 0800  
            _Lcd_Write_Char 0F3A                     _Lcd_Cmd 0DCF                     ___fldiv 02B5  
                   ___awdiv 0F99                     ___awmod 0E82                     ___flmul 0492  
                   ___fltol 002C             ?_Lcd_Set_Cursor 0074                     __ptext1 00A8  
                   __ptext2 002C                     __ptext3 0492                     __ptext4 0005  
                   __ptext5 02B5                     __ptext6 0E82                     __ptext7 0F99  
                   __ptext8 0E0B                     __ptext9 0F3A                  ??___xxtofl 0074  
          ___awmod@dividend 007B      __end_of_Lcd_Write_Char 0F99        end_of_initialization 07FC  
                 Lcd_Port@a 0070                  _time_taken 0067               ___xxtofl@sign 0078  
               ___fldiv@grs 004E                 ___fldiv@rem 0047             ?_Lcd_Write_Char 0070  
         Lcd_Write_String@a 007B           Lcd_Write_String@i 0079                 ___flmul@grs 002E  
                 _Lcd_Clear 0DC2            _Lcd_Write_String 0E0B         start_initialization 07F3  
         __size_of_Lcd_Init 005D           __size_of_Lcd_Port 0022                  ?_Lcd_Clear 0070  
                 __Umul8_16 0005             Lcd_Write_Char@i 0075                   ___fldiv@a 003A  
                 ___fldiv@b 003E                   ___flmul@a 0024                   ___flmul@b 0020  
                 ___latbits 0002               __pcstackBANK0 0020           __size_of___xxtofl 00BA  
                  ?_Lcd_Cmd 0070            ??_Lcd_Set_Cursor 0075                    ?___fldiv 003A  
                  ?___awdiv 0070                    ?___awmod 0079                    ?___flmul 0020  
                  ?___fltol 0054                  ?__Umul8_16 0070                   __pstrings 0800  
                  Lcd_Cmd@a 0073                 ??_Lcd_Clear 0074                 __stringbase 0805  
          ??_Lcd_Write_Char 0071                    _Lcd_Init 0EDD                    _Lcd_Port 0DE9  
  __end_of_Lcd_Write_String 0E30            __size_of_Lcd_Cmd 001A                 ??__Umul8_16 0072  
          __size_of___fldiv 01DD            __size_of___awdiv 0067            __size_of___awmod 005B  
          __size_of___flmul 0361            __size_of___fltol 007C          __end_of__stringtab 0806  
                  ___xxtofl 00A8                    __ptext10 0E30                    __ptext11 0EDD  
                  __ptext12 0DC2                    __ptext13 0DCF                    __ptext14 0DE9  
                  _distance 0062               __size_of_main 0153          Lcd_Write_Char@i_69 0077  
        Lcd_Write_Char@data 0074                   stringcode 0800          Lcd_Set_Cursor@temp 007A  
    __Umul8_16@multiplicand 0070  Lcd_Write_Char@Lower_Nibble 0072                    stringdir 0800  
                  stringtab 0800        __Umul8_16@multiplier 0078           __Umul8_16@product 0074  
